(dp1
S'output'
p2
S"<type 'exceptions.SyntaxError'> widget cannot determine options of no_table.sex"
p3
sS'layer'
p4
S'/home/rehas/web2py/applications/Aarogya/controllers/default.py'
p5
sS'code'
p6
S'# -*- coding: utf-8 -*-\n# this file is released under public domain and you can use without limitations\n\n#########################################################################\n## This is a samples controller\n## - index is the default action of any application\n## - user is required for authentication and authorization\n## - download is for downloading files uploaded in the db (does streaming)\n## - call exposes all registered services (none by default)\n#########################################################################\n\ndef index():\n    """\n    example action using the internationalization operator T and flash\n    rendered by views/default/index.html or views/generic.html\n    """\n    response.flash = "Welcome to web2py!"\n    return dict(message=T(\'Hello World\'))\n\ndef user():\n    """\n    exposes:\n    http://..../[app]/default/user/login\n    http://..../[app]/default/user/logout\n    http://..../[app]/default/user/register\n    http://..../[app]/default/user/profile\n    http://..../[app]/default/user/retrieve_password\n    http://..../[app]/default/user/change_password\n    use @auth.requires_login()\n        @auth.requires_membership(\'group name\')\n        @auth.requires_permission(\'read\',\'table name\',record_id)\n    to decorate functions that need access control\n    """\n    return dict(form=auth())\n\n\ndef download():\n    """\n    allows downloading of uploaded files\n    http://..../[app]/default/download/[filename]\n    """\n    return response.download(request,db)\n\n\ndef call():\n    """\n    exposes services. for example:\n    http://..../[app]/default/call/jsonrpc\n    decorate with @services.jsonrpc the functions to expose\n    supports xml, json, xmlrpc, jsonrpc, amfrpc, rss, csv\n    """\n    return service()\n\n\n@auth.requires_signature()\ndef data():\n    """\n    http://..../[app]/default/data/tables\n    http://..../[app]/default/data/create/[table]\n    http://..../[app]/default/data/read/[table]/[id]\n    http://..../[app]/default/data/update/[table]/[id]\n    http://..../[app]/default/data/delete/[table]/[id]\n    http://..../[app]/default/data/select/[table]\n    http://..../[app]/default/data/search/[table]\n    but URLs must be signed, i.e. linked with\n      A(\'table\',_href=URL(\'data/tables\',user_signature=True))\n    or with the signed load operator\n      LOAD(\'default\',\'data.load\',args=\'tables\',ajax=True,user_signature=True)\n    """\n    return dict(form=crud())\ndef signin():\n    form=SQLFORM.factory(\n    Field(\'first_name\', length=128,requires=IS_NOT_EMPTY()),\n \n    Field(\'last_name\', length=128, requires=IS_NOT_EMPTY()),\n \n    Field(\'dob\',\'date\', requires=IS_NOT_EMPTY()),\n \n    Field(\'sex\', \'string\',length=1, requires=[IS_NOT_EMPTY(),IS_IN_SET(\'F\',\'M\')],widget=SQLFORM.widgets.radio.widget),\n \n    Field(\'email\', length=128, unique=True,requires=IS_EMAIL()),\n    \n    Field(\'phone\', \'string\',length=10,requires=IS_NOT_EMPTY()),\n    \n    #Field(\'bloodgroup\',requires=[IS_NOT_EMPTY(), IS_IN_SET(\'O+\',\'O-\',\'A+\',\'A-\',\'B+\',\'B-\',\'AB+\',\'AB-\')],widget=SQLFORM.widgets.radio.widget),\n    \n    Field(\'allergies\', \'text\',length=10,requires=IS_NOT_EMPTY()),\n    \n    Field(\'address\', length=256, default=\'\'),\n \n    Field(\'password\', \'password\', length=512, readable=False, label=\'Password\')\n    )\n    if form.process().accepted:\n        response.flash=\'accepted!\'\n    elif form.errors:\n        response.flash=\'errors\'\n    return dict(form=form)\n\nresponse._vars=response._caller(signin)\n'
p7
sS'snapshot'
p8
(dp9
S'exception'
p10
(dp11
S'__getslice__'
p12
S"<method-wrapper '__getslice__' of exceptions.SyntaxError object>"
p13
sS'text'
p14
S'None'
p15
sS'__str__'
p16
S"<method-wrapper '__str__' of exceptions.SyntaxError object>"
p17
sS'__reduce__'
p18
S'<built-in method __reduce__ of exceptions.SyntaxError object>'
p19
sS'__dict__'
p20
S'{}'
p21
sS'__sizeof__'
p22
S'<built-in method __sizeof__ of exceptions.SyntaxError object>'
p23
sS'__init__'
p24
S"<method-wrapper '__init__' of exceptions.SyntaxError object>"
p25
sS'__setattr__'
p26
S"<method-wrapper '__setattr__' of exceptions.SyntaxError object>"
p27
sS'__reduce_ex__'
p28
S'<built-in method __reduce_ex__ of exceptions.SyntaxError object>'
p29
sS'__new__'
p30
S'<built-in method __new__ of type object>'
p31
sS'__format__'
p32
S'<built-in method __format__ of exceptions.SyntaxError object>'
p33
sS'__class__'
p34
S"<type 'exceptions.SyntaxError'>"
p35
sS'filename'
p36
S'None'
p37
sS'lineno'
p38
S'None'
p39
sS'msg'
p40
S"'widget cannot determine options of no_table.sex'"
p41
sS'__doc__'
p42
S"'Invalid syntax.'"
p43
sS'__getitem__'
p44
S"<method-wrapper '__getitem__' of exceptions.SyntaxError object>"
p45
sS'__setstate__'
p46
S'<built-in method __setstate__ of exceptions.SyntaxError object>'
p47
sS'__getattribute__'
p48
S"<method-wrapper '__getattribute__' of exceptions.SyntaxError object>"
p49
sS'print_file_and_line'
p50
S'None'
p51
sS'args'
p52
S"('widget cannot determine options of no_table.sex',)"
p53
sS'__subclasshook__'
p54
S'<built-in method __subclasshook__ of type object>'
p55
sS'offset'
p56
S'None'
p57
sS'__unicode__'
p58
S'<built-in method __unicode__ of exceptions.SyntaxError object>'
p59
sS'__delattr__'
p60
S"<method-wrapper '__delattr__' of exceptions.SyntaxError object>"
p61
sS'__repr__'
p62
S"<method-wrapper '__repr__' of exceptions.SyntaxError object>"
p63
sS'__hash__'
p64
S"<method-wrapper '__hash__' of exceptions.SyntaxError object>"
p65
ssS'evalue'
p66
S'widget cannot determine options of no_table.sex'
p67
sS'request'
p68
ccopy_reg
_reconstructor
p69
(cgluon.html
BEAUTIFY
p70
c__builtin__
object
p71
NtRp72
(dp73
S'attributes'
p74
(dp75
sS'components'
p76
(lp77
g69
(cgluon.html
TABLE
p78
g71
NtRp79
(dp80
g74
(dp81
S'level'
p82
I5
ssS'parent'
p83
Nsg76
(lp84
g69
(cgluon.html
TR
p85
g71
NtRp86
(dp87
g74
(dp88
sg83
g79
sg76
(lp89
g69
(cgluon.html
TD
p90
g71
NtRp91
(dp92
g74
(dp93
S'_style'
p94
S'font-weight:bold;vertical-align:top'
p95
ssg83
g86
sg76
(lp96
S'ajax'
p97
asbag69
(g90
g71
NtRp98
(dp99
g74
(dp100
S'_valign'
p101
S'top'
p102
ssg83
g86
sg76
(lp103
S':'
asbag69
(g90
g71
NtRp104
(dp105
g74
(dp106
sg83
g86
sg76
(lp107
g69
(g70
g71
NtRp108
(dp109
g74
(dp110
g82
I5
ssg83
g104
sg76
(lp111
S'False'
p112
asbasbasbag69
(g85
g71
NtRp113
(dp114
g74
(dp115
sg83
g79
sg76
(lp116
g69
(g90
g71
NtRp117
(dp118
g74
(dp119
g94
g95
ssg83
g113
sg76
(lp120
S'application'
p121
asbag69
(g90
g71
NtRp122
(dp123
g74
(dp124
g101
g102
ssg83
g113
sg76
(lp125
S':'
asbag69
(g90
g71
NtRp126
(dp127
g74
(dp128
sg83
g113
sg76
(lp129
g69
(g70
g71
NtRp130
(dp131
g74
(dp132
g82
I5
ssg83
g126
sg76
(lp133
S'Aarogya'
p134
asbasbasbag69
(g85
g71
NtRp135
(dp136
g74
(dp137
sg83
g79
sg76
(lp138
g69
(g90
g71
NtRp139
(dp140
g74
(dp141
g94
g95
ssg83
g135
sg76
(lp142
g52
asbag69
(g90
g71
NtRp143
(dp144
g74
(dp145
g101
g102
ssg83
g135
sg76
(lp146
S':'
asbag69
(g90
g71
NtRp147
(dp148
g74
(dp149
sg83
g135
sg76
(lp150
g69
(g70
g71
NtRp151
(dp152
g74
(dp153
g82
I5
ssg83
g147
sg76
(lp154
g69
(g78
g71
NtRp155
(dp156
g74
(dp157
g82
I4
ssg83
Nsg76
(lp158
sbasbasbasbag69
(g85
g71
NtRp159
(dp160
g74
(dp161
sg83
g79
sg76
(lp162
g69
(g90
g71
NtRp163
(dp164
g74
(dp165
g94
g95
ssg83
g159
sg76
(lp166
S'body'
p167
asbag69
(g90
g71
NtRp168
(dp169
g74
(dp170
g101
g102
ssg83
g159
sg76
(lp171
S':'
asbag69
(g90
g71
NtRp172
(dp173
g74
(dp174
sg83
g159
sg76
(lp175
g69
(g70
g71
NtRp176
(dp177
g74
(dp178
g82
I5
ssg83
g172
sg76
(lp179
S'<cStringIO.StringO object at 0x7f8133964e68>'
p180
asbasbasbag69
(g85
g71
NtRp181
(dp182
g74
(dp183
sg83
g79
sg76
(lp184
g69
(g90
g71
NtRp185
(dp186
g74
(dp187
g94
g95
ssg83
g181
sg76
(lp188
S'client'
p189
asbag69
(g90
g71
NtRp190
(dp191
g74
(dp192
g101
g102
ssg83
g181
sg76
(lp193
S':'
asbag69
(g90
g71
NtRp194
(dp195
g74
(dp196
sg83
g181
sg76
(lp197
g69
(g70
g71
NtRp198
(dp199
g74
(dp200
g82
I5
ssg83
g194
sg76
(lp201
S'127.0.0.1'
p202
asbasbasbag69
(g85
g71
NtRp203
(dp204
g74
(dp205
sg83
g79
sg76
(lp206
g69
(g90
g71
NtRp207
(dp208
g74
(dp209
g94
g95
ssg83
g203
sg76
(lp210
S'controller'
p211
asbag69
(g90
g71
NtRp212
(dp213
g74
(dp214
g101
g102
ssg83
g203
sg76
(lp215
S':'
asbag69
(g90
g71
NtRp216
(dp217
g74
(dp218
sg83
g203
sg76
(lp219
g69
(g70
g71
NtRp220
(dp221
g74
(dp222
g82
I5
ssg83
g216
sg76
(lp223
S'default'
p224
asbasbasbag69
(g85
g71
NtRp225
(dp226
g74
(dp227
sg83
g79
sg76
(lp228
g69
(g90
g71
NtRp229
(dp230
g74
(dp231
g94
g95
ssg83
g225
sg76
(lp232
S'cookies'
p233
asbag69
(g90
g71
NtRp234
(dp235
g74
(dp236
g101
g102
ssg83
g225
sg76
(lp237
S':'
asbag69
(g90
g71
NtRp238
(dp239
g74
(dp240
sg83
g225
sg76
(lp241
g69
(g70
g71
NtRp242
(dp243
g74
(dp244
g82
I5
ssg83
g238
sg76
(lp245
g69
(g78
g71
NtRp246
(dp247
g74
(dp248
g82
I4
ssg83
Nsg76
(lp249
g69
(g85
g71
NtRp250
(dp251
g74
(dp252
sg83
g246
sg76
(lp253
g69
(g90
g71
NtRp254
(dp255
g74
(dp256
g94
g95
ssg83
g250
sg76
(lp257
S'session_id_admin'
p258
asbag69
(g90
g71
NtRp259
(dp260
g74
(dp261
g101
g102
ssg83
g250
sg76
(lp262
S':'
asbag69
(g90
g71
NtRp263
(dp264
g74
(dp265
sg83
g250
sg76
(lp266
g69
(g70
g71
NtRp267
(dp268
g74
(dp269
g82
I4
ssg83
g263
sg76
(lp270
g69
(g78
g71
NtRp271
(dp272
g74
(dp273
g82
I3
ssg83
Nsg76
(lp274
g69
(g85
g71
NtRp275
(dp276
g74
(dp277
sg83
g271
sg76
(lp278
g69
(g90
g71
NtRp279
(dp280
g74
(dp281
g94
g95
ssg83
g275
sg76
(lp282
S'comment'
p283
asbag69
(g90
g71
NtRp284
(dp285
g74
(dp286
g101
g102
ssg83
g275
sg76
(lp287
S':'
asbag69
(g90
g71
NtRp288
(dp289
g74
(dp290
sg83
g275
sg76
(lp291
g69
(g70
g71
NtRp292
(dp293
g74
(dp294
g82
I3
ssg83
g288
sg76
(lp295
S''
asbasbasbag69
(g85
g71
NtRp296
(dp297
g74
(dp298
sg83
g271
sg76
(lp299
g69
(g90
g71
NtRp300
(dp301
g74
(dp302
g94
g95
ssg83
g296
sg76
(lp303
S'domain'
p304
asbag69
(g90
g71
NtRp305
(dp306
g74
(dp307
g101
g102
ssg83
g296
sg76
(lp308
S':'
asbag69
(g90
g71
NtRp309
(dp310
g74
(dp311
sg83
g296
sg76
(lp312
g69
(g70
g71
NtRp313
(dp314
g74
(dp315
g82
I3
ssg83
g309
sg76
(lp316
S''
asbasbasbag69
(g85
g71
NtRp317
(dp318
g74
(dp319
sg83
g271
sg76
(lp320
g69
(g90
g71
NtRp321
(dp322
g74
(dp323
g94
g95
ssg83
g317
sg76
(lp324
S'expires'
p325
asbag69
(g90
g71
NtRp326
(dp327
g74
(dp328
g101
g102
ssg83
g317
sg76
(lp329
S':'
asbag69
(g90
g71
NtRp330
(dp331
g74
(dp332
sg83
g317
sg76
(lp333
g69
(g70
g71
NtRp334
(dp335
g74
(dp336
g82
I3
ssg83
g330
sg76
(lp337
S''
asbasbasbag69
(g85
g71
NtRp338
(dp339
g74
(dp340
sg83
g271
sg76
(lp341
g69
(g90
g71
NtRp342
(dp343
g74
(dp344
g94
g95
ssg83
g338
sg76
(lp345
S'httponly'
p346
asbag69
(g90
g71
NtRp347
(dp348
g74
(dp349
g101
g102
ssg83
g338
sg76
(lp350
S':'
asbag69
(g90
g71
NtRp351
(dp352
g74
(dp353
sg83
g338
sg76
(lp354
g69
(g70
g71
NtRp355
(dp356
g74
(dp357
g82
I3
ssg83
g351
sg76
(lp358
S''
asbasbasbag69
(g85
g71
NtRp359
(dp360
g74
(dp361
sg83
g271
sg76
(lp362
g69
(g90
g71
NtRp363
(dp364
g74
(dp365
g94
g95
ssg83
g359
sg76
(lp366
S'max-age'
p367
asbag69
(g90
g71
NtRp368
(dp369
g74
(dp370
g101
g102
ssg83
g359
sg76
(lp371
S':'
asbag69
(g90
g71
NtRp372
(dp373
g74
(dp374
sg83
g359
sg76
(lp375
g69
(g70
g71
NtRp376
(dp377
g74
(dp378
g82
I3
ssg83
g372
sg76
(lp379
S''
asbasbasbag69
(g85
g71
NtRp380
(dp381
g74
(dp382
sg83
g271
sg76
(lp383
g69
(g90
g71
NtRp384
(dp385
g74
(dp386
g94
g95
ssg83
g380
sg76
(lp387
S'path'
p388
asbag69
(g90
g71
NtRp389
(dp390
g74
(dp391
g101
g102
ssg83
g380
sg76
(lp392
S':'
asbag69
(g90
g71
NtRp393
(dp394
g74
(dp395
sg83
g380
sg76
(lp396
g69
(g70
g71
NtRp397
(dp398
g74
(dp399
g82
I3
ssg83
g393
sg76
(lp400
S''
asbasbasbag69
(g85
g71
NtRp401
(dp402
g74
(dp403
sg83
g271
sg76
(lp404
g69
(g90
g71
NtRp405
(dp406
g74
(dp407
g94
g95
ssg83
g401
sg76
(lp408
S'secure'
p409
asbag69
(g90
g71
NtRp410
(dp411
g74
(dp412
g101
g102
ssg83
g401
sg76
(lp413
S':'
asbag69
(g90
g71
NtRp414
(dp415
g74
(dp416
sg83
g401
sg76
(lp417
g69
(g70
g71
NtRp418
(dp419
g74
(dp420
g82
I3
ssg83
g414
sg76
(lp421
S''
asbasbasbag69
(g85
g71
NtRp422
(dp423
g74
(dp424
sg83
g271
sg76
(lp425
g69
(g90
g71
NtRp426
(dp427
g74
(dp428
g94
g95
ssg83
g422
sg76
(lp429
S'version'
p430
asbag69
(g90
g71
NtRp431
(dp432
g74
(dp433
g101
g102
ssg83
g422
sg76
(lp434
S':'
asbag69
(g90
g71
NtRp435
(dp436
g74
(dp437
sg83
g422
sg76
(lp438
g69
(g70
g71
NtRp439
(dp440
g74
(dp441
g82
I3
ssg83
g435
sg76
(lp442
S''
asbasbasbasbasbasbasbag69
(g85
g71
NtRp443
(dp444
g74
(dp445
sg83
g246
sg76
(lp446
g69
(g90
g71
NtRp447
(dp448
g74
(dp449
g94
g95
ssg83
g443
sg76
(lp450
S'session_id_welcome'
p451
asbag69
(g90
g71
NtRp452
(dp453
g74
(dp454
g101
g102
ssg83
g443
sg76
(lp455
S':'
asbag69
(g90
g71
NtRp456
(dp457
g74
(dp458
sg83
g443
sg76
(lp459
g69
(g70
g71
NtRp460
(dp461
g74
(dp462
g82
I4
ssg83
g456
sg76
(lp463
g69
(g78
g71
NtRp464
(dp465
g74
(dp466
g82
I3
ssg83
Nsg76
(lp467
g69
(g85
g71
NtRp468
(dp469
g74
(dp470
sg83
g464
sg76
(lp471
g69
(g90
g71
NtRp472
(dp473
g74
(dp474
g94
g95
ssg83
g468
sg76
(lp475
g283
asbag69
(g90
g71
NtRp476
(dp477
g74
(dp478
g101
g102
ssg83
g468
sg76
(lp479
S':'
asbag69
(g90
g71
NtRp480
(dp481
g74
(dp482
sg83
g468
sg76
(lp483
g69
(g70
g71
NtRp484
(dp485
g74
(dp486
g82
I3
ssg83
g480
sg76
(lp487
S''
asbasbasbag69
(g85
g71
NtRp488
(dp489
g74
(dp490
sg83
g464
sg76
(lp491
g69
(g90
g71
NtRp492
(dp493
g74
(dp494
g94
g95
ssg83
g488
sg76
(lp495
g304
asbag69
(g90
g71
NtRp496
(dp497
g74
(dp498
g101
g102
ssg83
g488
sg76
(lp499
S':'
asbag69
(g90
g71
NtRp500
(dp501
g74
(dp502
sg83
g488
sg76
(lp503
g69
(g70
g71
NtRp504
(dp505
g74
(dp506
g82
I3
ssg83
g500
sg76
(lp507
S''
asbasbasbag69
(g85
g71
NtRp508
(dp509
g74
(dp510
sg83
g464
sg76
(lp511
g69
(g90
g71
NtRp512
(dp513
g74
(dp514
g94
g95
ssg83
g508
sg76
(lp515
g325
asbag69
(g90
g71
NtRp516
(dp517
g74
(dp518
g101
g102
ssg83
g508
sg76
(lp519
S':'
asbag69
(g90
g71
NtRp520
(dp521
g74
(dp522
sg83
g508
sg76
(lp523
g69
(g70
g71
NtRp524
(dp525
g74
(dp526
g82
I3
ssg83
g520
sg76
(lp527
S''
asbasbasbag69
(g85
g71
NtRp528
(dp529
g74
(dp530
sg83
g464
sg76
(lp531
g69
(g90
g71
NtRp532
(dp533
g74
(dp534
g94
g95
ssg83
g528
sg76
(lp535
g346
asbag69
(g90
g71
NtRp536
(dp537
g74
(dp538
g101
g102
ssg83
g528
sg76
(lp539
S':'
asbag69
(g90
g71
NtRp540
(dp541
g74
(dp542
sg83
g528
sg76
(lp543
g69
(g70
g71
NtRp544
(dp545
g74
(dp546
g82
I3
ssg83
g540
sg76
(lp547
S''
asbasbasbag69
(g85
g71
NtRp548
(dp549
g74
(dp550
sg83
g464
sg76
(lp551
g69
(g90
g71
NtRp552
(dp553
g74
(dp554
g94
g95
ssg83
g548
sg76
(lp555
g367
asbag69
(g90
g71
NtRp556
(dp557
g74
(dp558
g101
g102
ssg83
g548
sg76
(lp559
S':'
asbag69
(g90
g71
NtRp560
(dp561
g74
(dp562
sg83
g548
sg76
(lp563
g69
(g70
g71
NtRp564
(dp565
g74
(dp566
g82
I3
ssg83
g560
sg76
(lp567
S''
asbasbasbag69
(g85
g71
NtRp568
(dp569
g74
(dp570
sg83
g464
sg76
(lp571
g69
(g90
g71
NtRp572
(dp573
g74
(dp574
g94
g95
ssg83
g568
sg76
(lp575
g388
asbag69
(g90
g71
NtRp576
(dp577
g74
(dp578
g101
g102
ssg83
g568
sg76
(lp579
S':'
asbag69
(g90
g71
NtRp580
(dp581
g74
(dp582
sg83
g568
sg76
(lp583
g69
(g70
g71
NtRp584
(dp585
g74
(dp586
g82
I3
ssg83
g580
sg76
(lp587
S''
asbasbasbag69
(g85
g71
NtRp588
(dp589
g74
(dp590
sg83
g464
sg76
(lp591
g69
(g90
g71
NtRp592
(dp593
g74
(dp594
g94
g95
ssg83
g588
sg76
(lp595
g409
asbag69
(g90
g71
NtRp596
(dp597
g74
(dp598
g101
g102
ssg83
g588
sg76
(lp599
S':'
asbag69
(g90
g71
NtRp600
(dp601
g74
(dp602
sg83
g588
sg76
(lp603
g69
(g70
g71
NtRp604
(dp605
g74
(dp606
g82
I3
ssg83
g600
sg76
(lp607
S''
asbasbasbag69
(g85
g71
NtRp608
(dp609
g74
(dp610
sg83
g464
sg76
(lp611
g69
(g90
g71
NtRp612
(dp613
g74
(dp614
g94
g95
ssg83
g608
sg76
(lp615
g430
asbag69
(g90
g71
NtRp616
(dp617
g74
(dp618
g101
g102
ssg83
g608
sg76
(lp619
S':'
asbag69
(g90
g71
NtRp620
(dp621
g74
(dp622
sg83
g608
sg76
(lp623
g69
(g70
g71
NtRp624
(dp625
g74
(dp626
g82
I3
ssg83
g620
sg76
(lp627
S''
asbasbasbasbasbasbasbasbasbasbasbag69
(g85
g71
NtRp628
(dp629
g74
(dp630
sg83
g79
sg76
(lp631
g69
(g90
g71
NtRp632
(dp633
g74
(dp634
g94
g95
ssg83
g628
sg76
(lp635
S'env'
p636
asbag69
(g90
g71
NtRp637
(dp638
g74
(dp639
g101
g102
ssg83
g628
sg76
(lp640
S':'
asbag69
(g90
g71
NtRp641
(dp642
g74
(dp643
sg83
g628
sg76
(lp644
g69
(g70
g71
NtRp645
(dp646
g74
(dp647
g82
I5
ssg83
g641
sg76
(lp648
g69
(g78
g71
NtRp649
(dp650
g74
(dp651
g82
I4
ssg83
Nsg76
(lp652
g69
(g85
g71
NtRp653
(dp654
g74
(dp655
sg83
g649
sg76
(lp656
g69
(g90
g71
NtRp657
(dp658
g74
(dp659
g94
g95
ssg83
g653
sg76
(lp660
S'app_folders'
p661
asbag69
(g90
g71
NtRp662
(dp663
g74
(dp664
g101
g102
ssg83
g653
sg76
(lp665
S':'
asbag69
(g90
g71
NtRp666
(dp667
g74
(dp668
sg83
g653
sg76
(lp669
g69
(g70
g71
NtRp670
(dp671
g74
(dp672
g82
I4
ssg83
g666
sg76
(lp673
S"set(['/home/rehas/web2py/applications/Aarogya/', '/home/rehas/web2py/applications/admin/', '/home/rehas/web2py/applications/welcome/'])"
p674
asbasbasbag69
(g85
g71
NtRp675
(dp676
g74
(dp677
sg83
g649
sg76
(lp678
g69
(g90
g71
NtRp679
(dp680
g74
(dp681
g94
g95
ssg83
g675
sg76
(lp682
S'applications_parent'
p683
asbag69
(g90
g71
NtRp684
(dp685
g74
(dp686
g101
g102
ssg83
g675
sg76
(lp687
S':'
asbag69
(g90
g71
NtRp688
(dp689
g74
(dp690
sg83
g675
sg76
(lp691
g69
(g70
g71
NtRp692
(dp693
g74
(dp694
g82
I4
ssg83
g688
sg76
(lp695
S'/home/rehas/web2py'
p696
asbasbasbag69
(g85
g71
NtRp697
(dp698
g74
(dp699
sg83
g649
sg76
(lp700
g69
(g90
g71
NtRp701
(dp702
g74
(dp703
g94
g95
ssg83
g697
sg76
(lp704
S'cmd_args'
p705
asbag69
(g90
g71
NtRp706
(dp707
g74
(dp708
g101
g102
ssg83
g697
sg76
(lp709
S':'
asbag69
(g90
g71
NtRp710
(dp711
g74
(dp712
sg83
g697
sg76
(lp713
g69
(g70
g71
NtRp714
(dp715
g74
(dp716
g82
I4
ssg83
g710
sg76
(lp717
g69
(g78
g71
NtRp718
(dp719
g74
(dp720
g82
I3
ssg83
Nsg76
(lp721
sbasbasbasbag69
(g85
g71
NtRp722
(dp723
g74
(dp724
sg83
g649
sg76
(lp725
g69
(g90
g71
NtRp726
(dp727
g74
(dp728
g94
g95
ssg83
g722
sg76
(lp729
S'cmd_options'
p730
asbag69
(g90
g71
NtRp731
(dp732
g74
(dp733
g101
g102
ssg83
g722
sg76
(lp734
S':'
asbag69
(g90
g71
NtRp735
(dp736
g74
(dp737
sg83
g722
sg76
(lp738
g69
(g70
g71
NtRp739
(dp740
g74
(dp741
g82
I4
ssg83
g735
sg76
(lp742
S"<Values at 0x7f81342cf440: {'verbose': False, 'ip': '127.0.0.1', 'shutdown_timeout': 5, 'taskbar': False, 'nocron': False, 'pid_filename': 'httpserver.pid', 'maxthreads': None, 'softcron': False, 'server_name': 'Toblerone', 'bpython': False, 'nogui': False, 'port': 8000, 'extcron': False, 'debuglevel': 30, 'test': None, 'folder': '/home/rehas/web2py', 'config': '', 'import_models': False, 'winservice': '', 'shell': None, 'run': '', 'log_filename': 'httpserver.log', 'args': [''], 'socket_timeout': 5, 'ssl_ca_certificate': None, 'scheduler': None, 'profiler_filename': None, 'ssl_private_key': '', 'password': '<ask>', 'request_queue_size': 5, 'ssl_certificate': '', 'cronjob': False, 'numthreads': None, 'quiet': False, 'interfaces': None, 'minthreads': None, 'timeout': 10, 'plain': False, 'nobanner': False}>"
p743
asbasbasbag69
(g85
g71
NtRp744
(dp745
g74
(dp746
sg83
g649
sg76
(lp747
g69
(g90
g71
NtRp748
(dp749
g74
(dp750
g94
g95
ssg83
g744
sg76
(lp751
S'db_sessions'
p752
asbag69
(g90
g71
NtRp753
(dp754
g74
(dp755
g101
g102
ssg83
g744
sg76
(lp756
S':'
asbag69
(g90
g71
NtRp757
(dp758
g74
(dp759
sg83
g744
sg76
(lp760
g69
(g70
g71
NtRp761
(dp762
g74
(dp763
g82
I4
ssg83
g757
sg76
(lp764
S'set([])'
p765
asbasbasbag69
(g85
g71
NtRp766
(dp767
g74
(dp768
sg83
g649
sg76
(lp769
g69
(g90
g71
NtRp770
(dp771
g74
(dp772
g94
g95
ssg83
g766
sg76
(lp773
S'debugging'
p774
asbag69
(g90
g71
NtRp775
(dp776
g74
(dp777
g101
g102
ssg83
g766
sg76
(lp778
S':'
asbag69
(g90
g71
NtRp779
(dp780
g74
(dp781
sg83
g766
sg76
(lp782
g69
(g70
g71
NtRp783
(dp784
g74
(dp785
g82
I4
ssg83
g779
sg76
(lp786
g112
asbasbasbag69
(g85
g71
NtRp787
(dp788
g74
(dp789
sg83
g649
sg76
(lp790
g69
(g90
g71
NtRp791
(dp792
g74
(dp793
g94
g95
ssg83
g787
sg76
(lp794
S'gluon_parent'
p795
asbag69
(g90
g71
NtRp796
(dp797
g74
(dp798
g101
g102
ssg83
g787
sg76
(lp799
S':'
asbag69
(g90
g71
NtRp800
(dp801
g74
(dp802
sg83
g787
sg76
(lp803
g69
(g70
g71
NtRp804
(dp805
g74
(dp806
g82
I4
ssg83
g800
sg76
(lp807
S'/usr/share/web2py'
p808
asbasbasbag69
(g85
g71
NtRp809
(dp810
g74
(dp811
sg83
g649
sg76
(lp812
g69
(g90
g71
NtRp813
(dp814
g74
(dp815
g94
g95
ssg83
g809
sg76
(lp816
S'http_accept'
p817
asbag69
(g90
g71
NtRp818
(dp819
g74
(dp820
g101
g102
ssg83
g809
sg76
(lp821
S':'
asbag69
(g90
g71
NtRp822
(dp823
g74
(dp824
sg83
g809
sg76
(lp825
g69
(g70
g71
NtRp826
(dp827
g74
(dp828
g82
I4
ssg83
g822
sg76
(lp829
S'text/html,application/xhtml+xml,application/xml;q=0.9,image/webp,*/*;q=0.8'
p830
asbasbasbag69
(g85
g71
NtRp831
(dp832
g74
(dp833
sg83
g649
sg76
(lp834
g69
(g90
g71
NtRp835
(dp836
g74
(dp837
g94
g95
ssg83
g831
sg76
(lp838
S'http_accept_encoding'
p839
asbag69
(g90
g71
NtRp840
(dp841
g74
(dp842
g101
g102
ssg83
g831
sg76
(lp843
S':'
asbag69
(g90
g71
NtRp844
(dp845
g74
(dp846
sg83
g831
sg76
(lp847
g69
(g70
g71
NtRp848
(dp849
g74
(dp850
g82
I4
ssg83
g844
sg76
(lp851
S'gzip, deflate, sdch'
p852
asbasbasbag69
(g85
g71
NtRp853
(dp854
g74
(dp855
sg83
g649
sg76
(lp856
g69
(g90
g71
NtRp857
(dp858
g74
(dp859
g94
g95
ssg83
g853
sg76
(lp860
S'http_accept_language'
p861
asbag69
(g90
g71
NtRp862
(dp863
g74
(dp864
g101
g102
ssg83
g853
sg76
(lp865
S':'
asbag69
(g90
g71
NtRp866
(dp867
g74
(dp868
sg83
g853
sg76
(lp869
g69
(g70
g71
NtRp870
(dp871
g74
(dp872
g82
I4
ssg83
g866
sg76
(lp873
S'en-US,en;q=0.8'
p874
asbasbasbag69
(g85
g71
NtRp875
(dp876
g74
(dp877
sg83
g649
sg76
(lp878
g69
(g90
g71
NtRp879
(dp880
g74
(dp881
g94
g95
ssg83
g875
sg76
(lp882
S'http_connection'
p883
asbag69
(g90
g71
NtRp884
(dp885
g74
(dp886
g101
g102
ssg83
g875
sg76
(lp887
S':'
asbag69
(g90
g71
NtRp888
(dp889
g74
(dp890
sg83
g875
sg76
(lp891
g69
(g70
g71
NtRp892
(dp893
g74
(dp894
g82
I4
ssg83
g888
sg76
(lp895
S'keep-alive'
p896
asbasbasbag69
(g85
g71
NtRp897
(dp898
g74
(dp899
sg83
g649
sg76
(lp900
g69
(g90
g71
NtRp901
(dp902
g74
(dp903
g94
g95
ssg83
g897
sg76
(lp904
S'http_cookie'
p905
asbag69
(g90
g71
NtRp906
(dp907
g74
(dp908
g101
g102
ssg83
g897
sg76
(lp909
S':'
asbag69
(g90
g71
NtRp910
(dp911
g74
(dp912
sg83
g897
sg76
(lp913
g69
(g70
g71
NtRp914
(dp915
g74
(dp916
g82
I4
ssg83
g910
sg76
(lp917
S'session_id_welcome=127.0.0.1-08d6a30c-57df-41e8-9493-f779e3352903; session_id_admin=127.0.0.1-c4e18689-7edb-46fd-8f71-56a9dfe558f0'
p918
asbasbasbag69
(g85
g71
NtRp919
(dp920
g74
(dp921
sg83
g649
sg76
(lp922
g69
(g90
g71
NtRp923
(dp924
g74
(dp925
g94
g95
ssg83
g919
sg76
(lp926
S'http_host'
p927
asbag69
(g90
g71
NtRp928
(dp929
g74
(dp930
g101
g102
ssg83
g919
sg76
(lp931
S':'
asbag69
(g90
g71
NtRp932
(dp933
g74
(dp934
sg83
g919
sg76
(lp935
g69
(g70
g71
NtRp936
(dp937
g74
(dp938
g82
I4
ssg83
g932
sg76
(lp939
S'127.0.0.1:8000'
p940
asbasbasbag69
(g85
g71
NtRp941
(dp942
g74
(dp943
sg83
g649
sg76
(lp944
g69
(g90
g71
NtRp945
(dp946
g74
(dp947
g94
g95
ssg83
g941
sg76
(lp948
S'http_referer'
p949
asbag69
(g90
g71
NtRp950
(dp951
g74
(dp952
g101
g102
ssg83
g941
sg76
(lp953
S':'
asbag69
(g90
g71
NtRp954
(dp955
g74
(dp956
sg83
g941
sg76
(lp957
g69
(g70
g71
NtRp958
(dp959
g74
(dp960
g82
I4
ssg83
g954
sg76
(lp961
S'http://127.0.0.1:8000/admin/default/design/Aarogya'
p962
asbasbasbag69
(g85
g71
NtRp963
(dp964
g74
(dp965
sg83
g649
sg76
(lp966
g69
(g90
g71
NtRp967
(dp968
g74
(dp969
g94
g95
ssg83
g963
sg76
(lp970
S'http_user_agent'
p971
asbag69
(g90
g71
NtRp972
(dp973
g74
(dp974
g101
g102
ssg83
g963
sg76
(lp975
S':'
asbag69
(g90
g71
NtRp976
(dp977
g74
(dp978
sg83
g963
sg76
(lp979
g69
(g70
g71
NtRp980
(dp981
g74
(dp982
g82
I4
ssg83
g976
sg76
(lp983
S'Mozilla/5.0 (X11; Linux x86_64) AppleWebKit/537.36 (KHTML, like Gecko) Chrome/41.0.2272.101 Safari/537.36'
p984
asbasbasbag69
(g85
g71
NtRp985
(dp986
g74
(dp987
sg83
g649
sg76
(lp988
g69
(g90
g71
NtRp989
(dp990
g74
(dp991
g94
g95
ssg83
g985
sg76
(lp992
S'is_jython'
p993
asbag69
(g90
g71
NtRp994
(dp995
g74
(dp996
g101
g102
ssg83
g985
sg76
(lp997
S':'
asbag69
(g90
g71
NtRp998
(dp999
g74
(dp1000
sg83
g985
sg76
(lp1001
g69
(g70
g71
NtRp1002
(dp1003
g74
(dp1004
g82
I4
ssg83
g998
sg76
(lp1005
g112
asbasbasbag69
(g85
g71
NtRp1006
(dp1007
g74
(dp1008
sg83
g649
sg76
(lp1009
g69
(g90
g71
NtRp1010
(dp1011
g74
(dp1012
g94
g95
ssg83
g1006
sg76
(lp1013
S'is_pypy'
p1014
asbag69
(g90
g71
NtRp1015
(dp1016
g74
(dp1017
g101
g102
ssg83
g1006
sg76
(lp1018
S':'
asbag69
(g90
g71
NtRp1019
(dp1020
g74
(dp1021
sg83
g1006
sg76
(lp1022
g69
(g70
g71
NtRp1023
(dp1024
g74
(dp1025
g82
I4
ssg83
g1019
sg76
(lp1026
g112
asbasbasbag69
(g85
g71
NtRp1027
(dp1028
g74
(dp1029
sg83
g649
sg76
(lp1030
g69
(g90
g71
NtRp1031
(dp1032
g74
(dp1033
g94
g95
ssg83
g1027
sg76
(lp1034
S'path_info'
p1035
asbag69
(g90
g71
NtRp1036
(dp1037
g74
(dp1038
g101
g102
ssg83
g1027
sg76
(lp1039
S':'
asbag69
(g90
g71
NtRp1040
(dp1041
g74
(dp1042
sg83
g1027
sg76
(lp1043
g69
(g70
g71
NtRp1044
(dp1045
g74
(dp1046
g82
I4
ssg83
g1040
sg76
(lp1047
S'/Aarogya/default/signin'
p1048
asbasbasbag69
(g85
g71
NtRp1049
(dp1050
g74
(dp1051
sg83
g649
sg76
(lp1052
g69
(g90
g71
NtRp1053
(dp1054
g74
(dp1055
g94
g95
ssg83
g1049
sg76
(lp1056
S'query_string'
p1057
asbag69
(g90
g71
NtRp1058
(dp1059
g74
(dp1060
g101
g102
ssg83
g1049
sg76
(lp1061
S':'
asbag69
(g90
g71
NtRp1062
(dp1063
g74
(dp1064
sg83
g1049
sg76
(lp1065
g69
(g70
g71
NtRp1066
(dp1067
g74
(dp1068
g82
I4
ssg83
g1062
sg76
(lp1069
S''
asbasbasbag69
(g85
g71
NtRp1070
(dp1071
g74
(dp1072
sg83
g649
sg76
(lp1073
g69
(g90
g71
NtRp1074
(dp1075
g74
(dp1076
g94
g95
ssg83
g1070
sg76
(lp1077
S'remote_addr'
p1078
asbag69
(g90
g71
NtRp1079
(dp1080
g74
(dp1081
g101
g102
ssg83
g1070
sg76
(lp1082
S':'
asbag69
(g90
g71
NtRp1083
(dp1084
g74
(dp1085
sg83
g1070
sg76
(lp1086
g69
(g70
g71
NtRp1087
(dp1088
g74
(dp1089
g82
I4
ssg83
g1083
sg76
(lp1090
g202
asbasbasbag69
(g85
g71
NtRp1091
(dp1092
g74
(dp1093
sg83
g649
sg76
(lp1094
g69
(g90
g71
NtRp1095
(dp1096
g74
(dp1097
g94
g95
ssg83
g1091
sg76
(lp1098
S'remote_port'
p1099
asbag69
(g90
g71
NtRp1100
(dp1101
g74
(dp1102
g101
g102
ssg83
g1091
sg76
(lp1103
S':'
asbag69
(g90
g71
NtRp1104
(dp1105
g74
(dp1106
sg83
g1091
sg76
(lp1107
g69
(g70
g71
NtRp1108
(dp1109
g74
(dp1110
g82
I4
ssg83
g1104
sg76
(lp1111
S'56542'
p1112
asbasbasbag69
(g85
g71
NtRp1113
(dp1114
g74
(dp1115
sg83
g649
sg76
(lp1116
g69
(g90
g71
NtRp1117
(dp1118
g74
(dp1119
g94
g95
ssg83
g1113
sg76
(lp1120
S'request_method'
p1121
asbag69
(g90
g71
NtRp1122
(dp1123
g74
(dp1124
g101
g102
ssg83
g1113
sg76
(lp1125
S':'
asbag69
(g90
g71
NtRp1126
(dp1127
g74
(dp1128
sg83
g1113
sg76
(lp1129
g69
(g70
g71
NtRp1130
(dp1131
g74
(dp1132
g82
I4
ssg83
g1126
sg76
(lp1133
S'GET'
p1134
asbasbasbag69
(g85
g71
NtRp1135
(dp1136
g74
(dp1137
sg83
g649
sg76
(lp1138
g69
(g90
g71
NtRp1139
(dp1140
g74
(dp1141
g94
g95
ssg83
g1135
sg76
(lp1142
S'script_name'
p1143
asbag69
(g90
g71
NtRp1144
(dp1145
g74
(dp1146
g101
g102
ssg83
g1135
sg76
(lp1147
S':'
asbag69
(g90
g71
NtRp1148
(dp1149
g74
(dp1150
sg83
g1135
sg76
(lp1151
g69
(g70
g71
NtRp1152
(dp1153
g74
(dp1154
g82
I4
ssg83
g1148
sg76
(lp1155
S''
asbasbasbag69
(g85
g71
NtRp1156
(dp1157
g74
(dp1158
sg83
g649
sg76
(lp1159
g69
(g90
g71
NtRp1160
(dp1161
g74
(dp1162
g94
g95
ssg83
g1156
sg76
(lp1163
S'server_name'
p1164
asbag69
(g90
g71
NtRp1165
(dp1166
g74
(dp1167
g101
g102
ssg83
g1156
sg76
(lp1168
S':'
asbag69
(g90
g71
NtRp1169
(dp1170
g74
(dp1171
sg83
g1156
sg76
(lp1172
g69
(g70
g71
NtRp1173
(dp1174
g74
(dp1175
g82
I4
ssg83
g1169
sg76
(lp1176
S'Toblerone'
p1177
asbasbasbag69
(g85
g71
NtRp1178
(dp1179
g74
(dp1180
sg83
g649
sg76
(lp1181
g69
(g90
g71
NtRp1182
(dp1183
g74
(dp1184
g94
g95
ssg83
g1178
sg76
(lp1185
S'server_port'
p1186
asbag69
(g90
g71
NtRp1187
(dp1188
g74
(dp1189
g101
g102
ssg83
g1178
sg76
(lp1190
S':'
asbag69
(g90
g71
NtRp1191
(dp1192
g74
(dp1193
sg83
g1178
sg76
(lp1194
g69
(g70
g71
NtRp1195
(dp1196
g74
(dp1197
g82
I4
ssg83
g1191
sg76
(lp1198
S'8000'
p1199
asbasbasbag69
(g85
g71
NtRp1200
(dp1201
g74
(dp1202
sg83
g649
sg76
(lp1203
g69
(g90
g71
NtRp1204
(dp1205
g74
(dp1206
g94
g95
ssg83
g1200
sg76
(lp1207
S'server_protocol'
p1208
asbag69
(g90
g71
NtRp1209
(dp1210
g74
(dp1211
g101
g102
ssg83
g1200
sg76
(lp1212
S':'
asbag69
(g90
g71
NtRp1213
(dp1214
g74
(dp1215
sg83
g1200
sg76
(lp1216
g69
(g70
g71
NtRp1217
(dp1218
g74
(dp1219
g82
I4
ssg83
g1213
sg76
(lp1220
S'HTTP/1.1'
p1221
asbasbasbag69
(g85
g71
NtRp1222
(dp1223
g74
(dp1224
sg83
g649
sg76
(lp1225
g69
(g90
g71
NtRp1226
(dp1227
g74
(dp1228
g94
g95
ssg83
g1222
sg76
(lp1229
S'server_software'
p1230
asbag69
(g90
g71
NtRp1231
(dp1232
g74
(dp1233
g101
g102
ssg83
g1222
sg76
(lp1234
S':'
asbag69
(g90
g71
NtRp1235
(dp1236
g74
(dp1237
sg83
g1222
sg76
(lp1238
g69
(g70
g71
NtRp1239
(dp1240
g74
(dp1241
g82
I4
ssg83
g1235
sg76
(lp1242
S'Rocket 1.2.4'
p1243
asbasbasbag69
(g85
g71
NtRp1244
(dp1245
g74
(dp1246
sg83
g649
sg76
(lp1247
g69
(g90
g71
NtRp1248
(dp1249
g74
(dp1250
g94
g95
ssg83
g1244
sg76
(lp1251
S'web2py_crontype'
p1252
asbag69
(g90
g71
NtRp1253
(dp1254
g74
(dp1255
g101
g102
ssg83
g1244
sg76
(lp1256
S':'
asbag69
(g90
g71
NtRp1257
(dp1258
g74
(dp1259
sg83
g1244
sg76
(lp1260
g69
(g70
g71
NtRp1261
(dp1262
g74
(dp1263
g82
I4
ssg83
g1257
sg76
(lp1264
S'hard'
p1265
asbasbasbag69
(g85
g71
NtRp1266
(dp1267
g74
(dp1268
sg83
g649
sg76
(lp1269
g69
(g90
g71
NtRp1270
(dp1271
g74
(dp1272
g94
g95
ssg83
g1266
sg76
(lp1273
S'web2py_path'
p1274
asbag69
(g90
g71
NtRp1275
(dp1276
g74
(dp1277
g101
g102
ssg83
g1266
sg76
(lp1278
S':'
asbag69
(g90
g71
NtRp1279
(dp1280
g74
(dp1281
sg83
g1266
sg76
(lp1282
g69
(g70
g71
NtRp1283
(dp1284
g74
(dp1285
g82
I4
ssg83
g1279
sg76
(lp1286
g696
asbasbasbag69
(g85
g71
NtRp1287
(dp1288
g74
(dp1289
sg83
g649
sg76
(lp1290
g69
(g90
g71
NtRp1291
(dp1292
g74
(dp1293
g94
g95
ssg83
g1287
sg76
(lp1294
S'web2py_version'
p1295
asbag69
(g90
g71
NtRp1296
(dp1297
g74
(dp1298
g101
g102
ssg83
g1287
sg76
(lp1299
S':'
asbag69
(g90
g71
NtRp1300
(dp1301
g74
(dp1302
sg83
g1287
sg76
(lp1303
g69
(g70
g71
NtRp1304
(dp1305
g74
(dp1306
g82
I4
ssg83
g1300
sg76
(lp1307
g69
(g78
g71
NtRp1308
(dp1309
g74
(dp1310
g82
I3
ssg83
Nsg76
(lp1311
g69
(g85
g71
NtRp1312
(dp1313
g74
(dp1314
sg83
g1308
sg76
(lp1315
g69
(g90
g71
NtRp1316
(dp1317
g74
(dp1318
sg83
g1312
sg76
(lp1319
g69
(g70
g71
NtRp1320
(dp1321
g74
(dp1322
g82
I3
ssg83
g1316
sg76
(lp1323
S'1'
asbasbasbag69
(g85
g71
NtRp1324
(dp1325
g74
(dp1326
sg83
g1308
sg76
(lp1327
g69
(g90
g71
NtRp1328
(dp1329
g74
(dp1330
sg83
g1324
sg76
(lp1331
g69
(g70
g71
NtRp1332
(dp1333
g74
(dp1334
g82
I3
ssg83
g1328
sg76
(lp1335
S'99'
p1336
asbasbasbag69
(g85
g71
NtRp1337
(dp1338
g74
(dp1339
sg83
g1308
sg76
(lp1340
g69
(g90
g71
NtRp1341
(dp1342
g74
(dp1343
sg83
g1337
sg76
(lp1344
g69
(g70
g71
NtRp1345
(dp1346
g74
(dp1347
g82
I3
ssg83
g1341
sg76
(lp1348
S'7'
asbasbasbag69
(g85
g71
NtRp1349
(dp1350
g74
(dp1351
sg83
g1308
sg76
(lp1352
g69
(g90
g71
NtRp1353
(dp1354
g74
(dp1355
sg83
g1349
sg76
(lp1356
g69
(g70
g71
NtRp1357
(dp1358
g74
(dp1359
g82
I3
ssg83
g1353
sg76
(lp1360
S'datetime.datetime(2012, 3, 4, 22, 12, 8)'
p1361
asbasbasbag69
(g85
g71
NtRp1362
(dp1363
g74
(dp1364
sg83
g1308
sg76
(lp1365
g69
(g90
g71
NtRp1366
(dp1367
g74
(dp1368
sg83
g1362
sg76
(lp1369
g69
(g70
g71
NtRp1370
(dp1371
g74
(dp1372
g82
I3
ssg83
g1366
sg76
(lp1373
S'stable'
p1374
asbasbasbasbasbasbasbag69
(g85
g71
NtRp1375
(dp1376
g74
(dp1377
sg83
g649
sg76
(lp1378
g69
(g90
g71
NtRp1379
(dp1380
g74
(dp1381
g94
g95
ssg83
g1375
sg76
(lp1382
S'wsgi_errors'
p1383
asbag69
(g90
g71
NtRp1384
(dp1385
g74
(dp1386
g101
g102
ssg83
g1375
sg76
(lp1387
S':'
asbag69
(g90
g71
NtRp1388
(dp1389
g74
(dp1390
sg83
g1375
sg76
(lp1391
g69
(g70
g71
NtRp1392
(dp1393
g74
(dp1394
g82
I4
ssg83
g1388
sg76
(lp1395
S"<open file '<stderr>', mode 'w' at 0x7f81385401e0>"
p1396
asbasbasbag69
(g85
g71
NtRp1397
(dp1398
g74
(dp1399
sg83
g649
sg76
(lp1400
g69
(g90
g71
NtRp1401
(dp1402
g74
(dp1403
g94
g95
ssg83
g1397
sg76
(lp1404
S'wsgi_file_wrapper'
p1405
asbag69
(g90
g71
NtRp1406
(dp1407
g74
(dp1408
g101
g102
ssg83
g1397
sg76
(lp1409
S':'
asbag69
(g90
g71
NtRp1410
(dp1411
g74
(dp1412
sg83
g1397
sg76
(lp1413
g69
(g70
g71
NtRp1414
(dp1415
g74
(dp1416
g82
I4
ssg83
g1410
sg76
(lp1417
S'<class wsgiref.util.FileWrapper at 0x7f8134499bb0>'
p1418
asbasbasbag69
(g85
g71
NtRp1419
(dp1420
g74
(dp1421
sg83
g649
sg76
(lp1422
g69
(g90
g71
NtRp1423
(dp1424
g74
(dp1425
g94
g95
ssg83
g1419
sg76
(lp1426
S'wsgi_input'
p1427
asbag69
(g90
g71
NtRp1428
(dp1429
g74
(dp1430
g101
g102
ssg83
g1419
sg76
(lp1431
S':'
asbag69
(g90
g71
NtRp1432
(dp1433
g74
(dp1434
sg83
g1419
sg76
(lp1435
g69
(g70
g71
NtRp1436
(dp1437
g74
(dp1438
g82
I4
ssg83
g1432
sg76
(lp1439
S'<socket._fileobject object at 0x7f8100196950>'
p1440
asbasbasbag69
(g85
g71
NtRp1441
(dp1442
g74
(dp1443
sg83
g649
sg76
(lp1444
g69
(g90
g71
NtRp1445
(dp1446
g74
(dp1447
g94
g95
ssg83
g1441
sg76
(lp1448
S'wsgi_multiprocess'
p1449
asbag69
(g90
g71
NtRp1450
(dp1451
g74
(dp1452
g101
g102
ssg83
g1441
sg76
(lp1453
S':'
asbag69
(g90
g71
NtRp1454
(dp1455
g74
(dp1456
sg83
g1441
sg76
(lp1457
g69
(g70
g71
NtRp1458
(dp1459
g74
(dp1460
g82
I4
ssg83
g1454
sg76
(lp1461
g112
asbasbasbag69
(g85
g71
NtRp1462
(dp1463
g74
(dp1464
sg83
g649
sg76
(lp1465
g69
(g90
g71
NtRp1466
(dp1467
g74
(dp1468
g94
g95
ssg83
g1462
sg76
(lp1469
S'wsgi_multithread'
p1470
asbag69
(g90
g71
NtRp1471
(dp1472
g74
(dp1473
g101
g102
ssg83
g1462
sg76
(lp1474
S':'
asbag69
(g90
g71
NtRp1475
(dp1476
g74
(dp1477
sg83
g1462
sg76
(lp1478
g69
(g70
g71
NtRp1479
(dp1480
g74
(dp1481
g82
I4
ssg83
g1475
sg76
(lp1482
S'True'
p1483
asbasbasbag69
(g85
g71
NtRp1484
(dp1485
g74
(dp1486
sg83
g649
sg76
(lp1487
g69
(g90
g71
NtRp1488
(dp1489
g74
(dp1490
g94
g95
ssg83
g1484
sg76
(lp1491
S'wsgi_run_once'
p1492
asbag69
(g90
g71
NtRp1493
(dp1494
g74
(dp1495
g101
g102
ssg83
g1484
sg76
(lp1496
S':'
asbag69
(g90
g71
NtRp1497
(dp1498
g74
(dp1499
sg83
g1484
sg76
(lp1500
g69
(g70
g71
NtRp1501
(dp1502
g74
(dp1503
g82
I4
ssg83
g1497
sg76
(lp1504
g112
asbasbasbag69
(g85
g71
NtRp1505
(dp1506
g74
(dp1507
sg83
g649
sg76
(lp1508
g69
(g90
g71
NtRp1509
(dp1510
g74
(dp1511
g94
g95
ssg83
g1505
sg76
(lp1512
S'wsgi_url_scheme'
p1513
asbag69
(g90
g71
NtRp1514
(dp1515
g74
(dp1516
g101
g102
ssg83
g1505
sg76
(lp1517
S':'
asbag69
(g90
g71
NtRp1518
(dp1519
g74
(dp1520
sg83
g1505
sg76
(lp1521
g69
(g70
g71
NtRp1522
(dp1523
g74
(dp1524
g82
I4
ssg83
g1518
sg76
(lp1525
S'http'
p1526
asbasbasbag69
(g85
g71
NtRp1527
(dp1528
g74
(dp1529
sg83
g649
sg76
(lp1530
g69
(g90
g71
NtRp1531
(dp1532
g74
(dp1533
g94
g95
ssg83
g1527
sg76
(lp1534
S'wsgi_version'
p1535
asbag69
(g90
g71
NtRp1536
(dp1537
g74
(dp1538
g101
g102
ssg83
g1527
sg76
(lp1539
S':'
asbag69
(g90
g71
NtRp1540
(dp1541
g74
(dp1542
sg83
g1527
sg76
(lp1543
g69
(g70
g71
NtRp1544
(dp1545
g74
(dp1546
g82
I4
ssg83
g1540
sg76
(lp1547
g69
(g78
g71
NtRp1548
(dp1549
g74
(dp1550
g82
I3
ssg83
Nsg76
(lp1551
g69
(g85
g71
NtRp1552
(dp1553
g74
(dp1554
sg83
g1548
sg76
(lp1555
g69
(g90
g71
NtRp1556
(dp1557
g74
(dp1558
sg83
g1552
sg76
(lp1559
g69
(g70
g71
NtRp1560
(dp1561
g74
(dp1562
g82
I3
ssg83
g1556
sg76
(lp1563
S'1'
asbasbasbag69
(g85
g71
NtRp1564
(dp1565
g74
(dp1566
sg83
g1548
sg76
(lp1567
g69
(g90
g71
NtRp1568
(dp1569
g74
(dp1570
sg83
g1564
sg76
(lp1571
g69
(g70
g71
NtRp1572
(dp1573
g74
(dp1574
g82
I3
ssg83
g1568
sg76
(lp1575
S'0'
asbasbasbasbasbasbasbasbasbasbasbag69
(g85
g71
NtRp1576
(dp1577
g74
(dp1578
sg83
g79
sg76
(lp1579
g69
(g90
g71
NtRp1580
(dp1581
g74
(dp1582
g94
g95
ssg83
g1576
sg76
(lp1583
S'extension'
p1584
asbag69
(g90
g71
NtRp1585
(dp1586
g74
(dp1587
g101
g102
ssg83
g1576
sg76
(lp1588
S':'
asbag69
(g90
g71
NtRp1589
(dp1590
g74
(dp1591
sg83
g1576
sg76
(lp1592
g69
(g70
g71
NtRp1593
(dp1594
g74
(dp1595
g82
I5
ssg83
g1589
sg76
(lp1596
S'html'
p1597
asbasbasbag69
(g85
g71
NtRp1598
(dp1599
g74
(dp1600
sg83
g79
sg76
(lp1601
g69
(g90
g71
NtRp1602
(dp1603
g74
(dp1604
g94
g95
ssg83
g1598
sg76
(lp1605
S'folder'
p1606
asbag69
(g90
g71
NtRp1607
(dp1608
g74
(dp1609
g101
g102
ssg83
g1598
sg76
(lp1610
S':'
asbag69
(g90
g71
NtRp1611
(dp1612
g74
(dp1613
sg83
g1598
sg76
(lp1614
g69
(g70
g71
NtRp1615
(dp1616
g74
(dp1617
g82
I5
ssg83
g1611
sg76
(lp1618
S'/home/rehas/web2py/applications/Aarogya/'
p1619
asbasbasbag69
(g85
g71
NtRp1620
(dp1621
g74
(dp1622
sg83
g79
sg76
(lp1623
g69
(g90
g71
NtRp1624
(dp1625
g74
(dp1626
g94
g95
ssg83
g1620
sg76
(lp1627
S'function'
p1628
asbag69
(g90
g71
NtRp1629
(dp1630
g74
(dp1631
g101
g102
ssg83
g1620
sg76
(lp1632
S':'
asbag69
(g90
g71
NtRp1633
(dp1634
g74
(dp1635
sg83
g1620
sg76
(lp1636
g69
(g70
g71
NtRp1637
(dp1638
g74
(dp1639
g82
I5
ssg83
g1633
sg76
(lp1640
S'signin'
p1641
asbasbasbag69
(g85
g71
NtRp1642
(dp1643
g74
(dp1644
sg83
g79
sg76
(lp1645
g69
(g90
g71
NtRp1646
(dp1647
g74
(dp1648
g94
g95
ssg83
g1642
sg76
(lp1649
S'get_vars'
p1650
asbag69
(g90
g71
NtRp1651
(dp1652
g74
(dp1653
g101
g102
ssg83
g1642
sg76
(lp1654
S':'
asbag69
(g90
g71
NtRp1655
(dp1656
g74
(dp1657
sg83
g1642
sg76
(lp1658
g69
(g70
g71
NtRp1659
(dp1660
g74
(dp1661
g82
I5
ssg83
g1655
sg76
(lp1662
g69
(g78
g71
NtRp1663
(dp1664
g74
(dp1665
g82
I4
ssg83
Nsg76
(lp1666
sbasbasbasbag69
(g85
g71
NtRp1667
(dp1668
g74
(dp1669
sg83
g79
sg76
(lp1670
g69
(g90
g71
NtRp1671
(dp1672
g74
(dp1673
g94
g95
ssg83
g1667
sg76
(lp1674
S'global_settings'
p1675
asbag69
(g90
g71
NtRp1676
(dp1677
g74
(dp1678
g101
g102
ssg83
g1667
sg76
(lp1679
S':'
asbag69
(g90
g71
NtRp1680
(dp1681
g74
(dp1682
sg83
g1667
sg76
(lp1683
g69
(g70
g71
NtRp1684
(dp1685
g74
(dp1686
g82
I5
ssg83
g1680
sg76
(lp1687
g69
(g78
g71
NtRp1688
(dp1689
g74
(dp1690
g82
I4
ssg83
Nsg76
(lp1691
g69
(g85
g71
NtRp1692
(dp1693
g74
(dp1694
sg83
g1688
sg76
(lp1695
g69
(g90
g71
NtRp1696
(dp1697
g74
(dp1698
g94
g95
ssg83
g1692
sg76
(lp1699
g661
asbag69
(g90
g71
NtRp1700
(dp1701
g74
(dp1702
g101
g102
ssg83
g1692
sg76
(lp1703
S':'
asbag69
(g90
g71
NtRp1704
(dp1705
g74
(dp1706
sg83
g1692
sg76
(lp1707
g69
(g70
g71
NtRp1708
(dp1709
g74
(dp1710
g82
I4
ssg83
g1704
sg76
(lp1711
S"set(['/home/rehas/web2py/applications/Aarogya/', '/home/rehas/web2py/applications/admin/', '/home/rehas/web2py/applications/welcome/'])"
p1712
asbasbasbag69
(g85
g71
NtRp1713
(dp1714
g74
(dp1715
sg83
g1688
sg76
(lp1716
g69
(g90
g71
NtRp1717
(dp1718
g74
(dp1719
g94
g95
ssg83
g1713
sg76
(lp1720
g683
asbag69
(g90
g71
NtRp1721
(dp1722
g74
(dp1723
g101
g102
ssg83
g1713
sg76
(lp1724
S':'
asbag69
(g90
g71
NtRp1725
(dp1726
g74
(dp1727
sg83
g1713
sg76
(lp1728
g69
(g70
g71
NtRp1729
(dp1730
g74
(dp1731
g82
I4
ssg83
g1725
sg76
(lp1732
g696
asbasbasbag69
(g85
g71
NtRp1733
(dp1734
g74
(dp1735
sg83
g1688
sg76
(lp1736
g69
(g90
g71
NtRp1737
(dp1738
g74
(dp1739
g94
g95
ssg83
g1733
sg76
(lp1740
g705
asbag69
(g90
g71
NtRp1741
(dp1742
g74
(dp1743
g101
g102
ssg83
g1733
sg76
(lp1744
S':'
asbag69
(g90
g71
NtRp1745
(dp1746
g74
(dp1747
sg83
g1733
sg76
(lp1748
g69
(g70
g71
NtRp1749
(dp1750
g74
(dp1751
g82
I4
ssg83
g1745
sg76
(lp1752
g69
(g78
g71
NtRp1753
(dp1754
g74
(dp1755
g82
I3
ssg83
Nsg76
(lp1756
sbasbasbasbag69
(g85
g71
NtRp1757
(dp1758
g74
(dp1759
sg83
g1688
sg76
(lp1760
g69
(g90
g71
NtRp1761
(dp1762
g74
(dp1763
g94
g95
ssg83
g1757
sg76
(lp1764
g730
asbag69
(g90
g71
NtRp1765
(dp1766
g74
(dp1767
g101
g102
ssg83
g1757
sg76
(lp1768
S':'
asbag69
(g90
g71
NtRp1769
(dp1770
g74
(dp1771
sg83
g1757
sg76
(lp1772
g69
(g70
g71
NtRp1773
(dp1774
g74
(dp1775
g82
I4
ssg83
g1769
sg76
(lp1776
S"<Values at 0x7f81342cf440: {'verbose': False, 'ip': '127.0.0.1', 'shutdown_timeout': 5, 'taskbar': False, 'nocron': False, 'pid_filename': 'httpserver.pid', 'maxthreads': None, 'softcron': False, 'server_name': 'Toblerone', 'bpython': False, 'nogui': False, 'port': 8000, 'extcron': False, 'debuglevel': 30, 'test': None, 'folder': '/home/rehas/web2py', 'config': '', 'import_models': False, 'winservice': '', 'shell': None, 'run': '', 'log_filename': 'httpserver.log', 'args': [''], 'socket_timeout': 5, 'ssl_ca_certificate': None, 'scheduler': None, 'profiler_filename': None, 'ssl_private_key': '', 'password': '<ask>', 'request_queue_size': 5, 'ssl_certificate': '', 'cronjob': False, 'numthreads': None, 'quiet': False, 'interfaces': None, 'minthreads': None, 'timeout': 10, 'plain': False, 'nobanner': False}>"
p1777
asbasbasbag69
(g85
g71
NtRp1778
(dp1779
g74
(dp1780
sg83
g1688
sg76
(lp1781
g69
(g90
g71
NtRp1782
(dp1783
g74
(dp1784
g94
g95
ssg83
g1778
sg76
(lp1785
g752
asbag69
(g90
g71
NtRp1786
(dp1787
g74
(dp1788
g101
g102
ssg83
g1778
sg76
(lp1789
S':'
asbag69
(g90
g71
NtRp1790
(dp1791
g74
(dp1792
sg83
g1778
sg76
(lp1793
g69
(g70
g71
NtRp1794
(dp1795
g74
(dp1796
g82
I4
ssg83
g1790
sg76
(lp1797
S'set([])'
p1798
asbasbasbag69
(g85
g71
NtRp1799
(dp1800
g74
(dp1801
sg83
g1688
sg76
(lp1802
g69
(g90
g71
NtRp1803
(dp1804
g74
(dp1805
g94
g95
ssg83
g1799
sg76
(lp1806
g774
asbag69
(g90
g71
NtRp1807
(dp1808
g74
(dp1809
g101
g102
ssg83
g1799
sg76
(lp1810
S':'
asbag69
(g90
g71
NtRp1811
(dp1812
g74
(dp1813
sg83
g1799
sg76
(lp1814
g69
(g70
g71
NtRp1815
(dp1816
g74
(dp1817
g82
I4
ssg83
g1811
sg76
(lp1818
g112
asbasbasbag69
(g85
g71
NtRp1819
(dp1820
g74
(dp1821
sg83
g1688
sg76
(lp1822
g69
(g90
g71
NtRp1823
(dp1824
g74
(dp1825
g94
g95
ssg83
g1819
sg76
(lp1826
g795
asbag69
(g90
g71
NtRp1827
(dp1828
g74
(dp1829
g101
g102
ssg83
g1819
sg76
(lp1830
S':'
asbag69
(g90
g71
NtRp1831
(dp1832
g74
(dp1833
sg83
g1819
sg76
(lp1834
g69
(g70
g71
NtRp1835
(dp1836
g74
(dp1837
g82
I4
ssg83
g1831
sg76
(lp1838
g808
asbasbasbag69
(g85
g71
NtRp1839
(dp1840
g74
(dp1841
sg83
g1688
sg76
(lp1842
g69
(g90
g71
NtRp1843
(dp1844
g74
(dp1845
g94
g95
ssg83
g1839
sg76
(lp1846
g993
asbag69
(g90
g71
NtRp1847
(dp1848
g74
(dp1849
g101
g102
ssg83
g1839
sg76
(lp1850
S':'
asbag69
(g90
g71
NtRp1851
(dp1852
g74
(dp1853
sg83
g1839
sg76
(lp1854
g69
(g70
g71
NtRp1855
(dp1856
g74
(dp1857
g82
I4
ssg83
g1851
sg76
(lp1858
g112
asbasbasbag69
(g85
g71
NtRp1859
(dp1860
g74
(dp1861
sg83
g1688
sg76
(lp1862
g69
(g90
g71
NtRp1863
(dp1864
g74
(dp1865
g94
g95
ssg83
g1859
sg76
(lp1866
g1014
asbag69
(g90
g71
NtRp1867
(dp1868
g74
(dp1869
g101
g102
ssg83
g1859
sg76
(lp1870
S':'
asbag69
(g90
g71
NtRp1871
(dp1872
g74
(dp1873
sg83
g1859
sg76
(lp1874
g69
(g70
g71
NtRp1875
(dp1876
g74
(dp1877
g82
I4
ssg83
g1871
sg76
(lp1878
g112
asbasbasbag69
(g85
g71
NtRp1879
(dp1880
g74
(dp1881
sg83
g1688
sg76
(lp1882
g69
(g90
g71
NtRp1883
(dp1884
g74
(dp1885
g94
g95
ssg83
g1879
sg76
(lp1886
g1252
asbag69
(g90
g71
NtRp1887
(dp1888
g74
(dp1889
g101
g102
ssg83
g1879
sg76
(lp1890
S':'
asbag69
(g90
g71
NtRp1891
(dp1892
g74
(dp1893
sg83
g1879
sg76
(lp1894
g69
(g70
g71
NtRp1895
(dp1896
g74
(dp1897
g82
I4
ssg83
g1891
sg76
(lp1898
g1265
asbasbasbag69
(g85
g71
NtRp1899
(dp1900
g74
(dp1901
sg83
g1688
sg76
(lp1902
g69
(g90
g71
NtRp1903
(dp1904
g74
(dp1905
g94
g95
ssg83
g1899
sg76
(lp1906
g1295
asbag69
(g90
g71
NtRp1907
(dp1908
g74
(dp1909
g101
g102
ssg83
g1899
sg76
(lp1910
S':'
asbag69
(g90
g71
NtRp1911
(dp1912
g74
(dp1913
sg83
g1899
sg76
(lp1914
g69
(g70
g71
NtRp1915
(dp1916
g74
(dp1917
g82
I4
ssg83
g1911
sg76
(lp1918
g69
(g78
g71
NtRp1919
(dp1920
g74
(dp1921
g82
I3
ssg83
Nsg76
(lp1922
g69
(g85
g71
NtRp1923
(dp1924
g74
(dp1925
sg83
g1919
sg76
(lp1926
g69
(g90
g71
NtRp1927
(dp1928
g74
(dp1929
sg83
g1923
sg76
(lp1930
g69
(g70
g71
NtRp1931
(dp1932
g74
(dp1933
g82
I3
ssg83
g1927
sg76
(lp1934
S'1'
asbasbasbag69
(g85
g71
NtRp1935
(dp1936
g74
(dp1937
sg83
g1919
sg76
(lp1938
g69
(g90
g71
NtRp1939
(dp1940
g74
(dp1941
sg83
g1935
sg76
(lp1942
g69
(g70
g71
NtRp1943
(dp1944
g74
(dp1945
g82
I3
ssg83
g1939
sg76
(lp1946
S'99'
p1947
asbasbasbag69
(g85
g71
NtRp1948
(dp1949
g74
(dp1950
sg83
g1919
sg76
(lp1951
g69
(g90
g71
NtRp1952
(dp1953
g74
(dp1954
sg83
g1948
sg76
(lp1955
g69
(g70
g71
NtRp1956
(dp1957
g74
(dp1958
g82
I3
ssg83
g1952
sg76
(lp1959
S'7'
asbasbasbag69
(g85
g71
NtRp1960
(dp1961
g74
(dp1962
sg83
g1919
sg76
(lp1963
g69
(g90
g71
NtRp1964
(dp1965
g74
(dp1966
sg83
g1960
sg76
(lp1967
g69
(g70
g71
NtRp1968
(dp1969
g74
(dp1970
g82
I3
ssg83
g1964
sg76
(lp1971
S'datetime.datetime(2012, 3, 4, 22, 12, 8)'
p1972
asbasbasbag69
(g85
g71
NtRp1973
(dp1974
g74
(dp1975
sg83
g1919
sg76
(lp1976
g69
(g90
g71
NtRp1977
(dp1978
g74
(dp1979
sg83
g1973
sg76
(lp1980
g69
(g70
g71
NtRp1981
(dp1982
g74
(dp1983
g82
I3
ssg83
g1977
sg76
(lp1984
g1374
asbasbasbasbasbasbasbasbasbasbasbag69
(g85
g71
NtRp1985
(dp1986
g74
(dp1987
sg83
g79
sg76
(lp1988
g69
(g90
g71
NtRp1989
(dp1990
g74
(dp1991
g94
g95
ssg83
g1985
sg76
(lp1992
S'is_https'
p1993
asbag69
(g90
g71
NtRp1994
(dp1995
g74
(dp1996
g101
g102
ssg83
g1985
sg76
(lp1997
S':'
asbag69
(g90
g71
NtRp1998
(dp1999
g74
(dp2000
sg83
g1985
sg76
(lp2001
g69
(g70
g71
NtRp2002
(dp2003
g74
(dp2004
g82
I5
ssg83
g1998
sg76
(lp2005
g112
asbasbasbag69
(g85
g71
NtRp2006
(dp2007
g74
(dp2008
sg83
g79
sg76
(lp2009
g69
(g90
g71
NtRp2010
(dp2011
g74
(dp2012
g94
g95
ssg83
g2006
sg76
(lp2013
S'is_local'
p2014
asbag69
(g90
g71
NtRp2015
(dp2016
g74
(dp2017
g101
g102
ssg83
g2006
sg76
(lp2018
S':'
asbag69
(g90
g71
NtRp2019
(dp2020
g74
(dp2021
sg83
g2006
sg76
(lp2022
g69
(g70
g71
NtRp2023
(dp2024
g74
(dp2025
g82
I5
ssg83
g2019
sg76
(lp2026
g1483
asbasbasbag69
(g85
g71
NtRp2027
(dp2028
g74
(dp2029
sg83
g79
sg76
(lp2030
g69
(g90
g71
NtRp2031
(dp2032
g74
(dp2033
g94
g95
ssg83
g2027
sg76
(lp2034
S'is_restful'
p2035
asbag69
(g90
g71
NtRp2036
(dp2037
g74
(dp2038
g101
g102
ssg83
g2027
sg76
(lp2039
S':'
asbag69
(g90
g71
NtRp2040
(dp2041
g74
(dp2042
sg83
g2027
sg76
(lp2043
g69
(g70
g71
NtRp2044
(dp2045
g74
(dp2046
g82
I5
ssg83
g2040
sg76
(lp2047
g112
asbasbasbag69
(g85
g71
NtRp2048
(dp2049
g74
(dp2050
sg83
g79
sg76
(lp2051
g69
(g90
g71
NtRp2052
(dp2053
g74
(dp2054
g94
g95
ssg83
g2048
sg76
(lp2055
S'now'
p2056
asbag69
(g90
g71
NtRp2057
(dp2058
g74
(dp2059
g101
g102
ssg83
g2048
sg76
(lp2060
S':'
asbag69
(g90
g71
NtRp2061
(dp2062
g74
(dp2063
sg83
g2048
sg76
(lp2064
g69
(g70
g71
NtRp2065
(dp2066
g74
(dp2067
g82
I5
ssg83
g2061
sg76
(lp2068
S'datetime.datetime(2015, 4, 2, 19, 37, 45, 204141)'
p2069
asbasbasbag69
(g85
g71
NtRp2070
(dp2071
g74
(dp2072
sg83
g79
sg76
(lp2073
g69
(g90
g71
NtRp2074
(dp2075
g74
(dp2076
g94
g95
ssg83
g2070
sg76
(lp2077
S'post_vars'
p2078
asbag69
(g90
g71
NtRp2079
(dp2080
g74
(dp2081
g101
g102
ssg83
g2070
sg76
(lp2082
S':'
asbag69
(g90
g71
NtRp2083
(dp2084
g74
(dp2085
sg83
g2070
sg76
(lp2086
g69
(g70
g71
NtRp2087
(dp2088
g74
(dp2089
g82
I5
ssg83
g2083
sg76
(lp2090
g69
(g78
g71
NtRp2091
(dp2092
g74
(dp2093
g82
I4
ssg83
Nsg76
(lp2094
sbasbasbasbag69
(g85
g71
NtRp2095
(dp2096
g74
(dp2097
sg83
g79
sg76
(lp2098
g69
(g90
g71
NtRp2099
(dp2100
g74
(dp2101
g94
g95
ssg83
g2095
sg76
(lp2102
S'url'
p2103
asbag69
(g90
g71
NtRp2104
(dp2105
g74
(dp2106
g101
g102
ssg83
g2095
sg76
(lp2107
S':'
asbag69
(g90
g71
NtRp2108
(dp2109
g74
(dp2110
sg83
g2095
sg76
(lp2111
g69
(g70
g71
NtRp2112
(dp2113
g74
(dp2114
g82
I5
ssg83
g2108
sg76
(lp2115
S'/Aarogya/default/signin'
p2116
asbasbasbag69
(g85
g71
NtRp2117
(dp2118
g74
(dp2119
sg83
g79
sg76
(lp2120
g69
(g90
g71
NtRp2121
(dp2122
g74
(dp2123
g94
g95
ssg83
g2117
sg76
(lp2124
S'utcnow'
p2125
asbag69
(g90
g71
NtRp2126
(dp2127
g74
(dp2128
g101
g102
ssg83
g2117
sg76
(lp2129
S':'
asbag69
(g90
g71
NtRp2130
(dp2131
g74
(dp2132
sg83
g2117
sg76
(lp2133
g69
(g70
g71
NtRp2134
(dp2135
g74
(dp2136
g82
I5
ssg83
g2130
sg76
(lp2137
S'datetime.datetime(2015, 4, 2, 14, 7, 45, 204174)'
p2138
asbasbasbag69
(g85
g71
NtRp2139
(dp2140
g74
(dp2141
sg83
g79
sg76
(lp2142
g69
(g90
g71
NtRp2143
(dp2144
g74
(dp2145
g94
g95
ssg83
g2139
sg76
(lp2146
S'uuid'
p2147
asbag69
(g90
g71
NtRp2148
(dp2149
g74
(dp2150
g101
g102
ssg83
g2139
sg76
(lp2151
S':'
asbag69
(g90
g71
NtRp2152
(dp2153
g74
(dp2154
sg83
g2139
sg76
(lp2155
g69
(g70
g71
NtRp2156
(dp2157
g74
(dp2158
g82
I5
ssg83
g2152
sg76
(lp2159
S'Aarogya/127.0.0.1.2015-04-02.19-37-45.6b6bc950-5d69-4951-a736-e761a892c2dc'
p2160
asbasbasbag69
(g85
g71
NtRp2161
(dp2162
g74
(dp2163
sg83
g79
sg76
(lp2164
g69
(g90
g71
NtRp2165
(dp2166
g74
(dp2167
g94
g95
ssg83
g2161
sg76
(lp2168
S'vars'
p2169
asbag69
(g90
g71
NtRp2170
(dp2171
g74
(dp2172
g101
g102
ssg83
g2161
sg76
(lp2173
S':'
asbag69
(g90
g71
NtRp2174
(dp2175
g74
(dp2176
sg83
g2161
sg76
(lp2177
g69
(g70
g71
NtRp2178
(dp2179
g74
(dp2180
g82
I5
ssg83
g2174
sg76
(lp2181
g69
(g78
g71
NtRp2182
(dp2183
g74
(dp2184
g82
I4
ssg83
Nsg76
(lp2185
sbasbasbasbag69
(g85
g71
NtRp2186
(dp2187
g74
(dp2188
sg83
g79
sg76
(lp2189
g69
(g90
g71
NtRp2190
(dp2191
g74
(dp2192
g94
g95
ssg83
g2186
sg76
(lp2193
S'wsgi'
p2194
asbag69
(g90
g71
NtRp2195
(dp2196
g74
(dp2197
g101
g102
ssg83
g2186
sg76
(lp2198
S':'
asbag69
(g90
g71
NtRp2199
(dp2200
g74
(dp2201
sg83
g2186
sg76
(lp2202
g69
(g70
g71
NtRp2203
(dp2204
g74
(dp2205
g82
I5
ssg83
g2199
sg76
(lp2206
g69
(g78
g71
NtRp2207
(dp2208
g74
(dp2209
g82
I4
ssg83
Nsg76
(lp2210
g69
(g85
g71
NtRp2211
(dp2212
g74
(dp2213
sg83
g2207
sg76
(lp2214
g69
(g90
g71
NtRp2215
(dp2216
g74
(dp2217
g94
g95
ssg83
g2211
sg76
(lp2218
S'environ'
p2219
asbag69
(g90
g71
NtRp2220
(dp2221
g74
(dp2222
g101
g102
ssg83
g2211
sg76
(lp2223
S':'
asbag69
(g90
g71
NtRp2224
(dp2225
g74
(dp2226
sg83
g2211
sg76
(lp2227
g69
(g70
g71
NtRp2228
(dp2229
g74
(dp2230
g82
I4
ssg83
g2224
sg76
(lp2231
g69
(g78
g71
NtRp2232
(dp2233
g74
(dp2234
g82
I3
ssg83
Nsg76
(lp2235
g69
(g85
g71
NtRp2236
(dp2237
g74
(dp2238
sg83
g2232
sg76
(lp2239
g69
(g90
g71
NtRp2240
(dp2241
g74
(dp2242
g94
g95
ssg83
g2236
sg76
(lp2243
S'HTTP_ACCEPT'
p2244
asbag69
(g90
g71
NtRp2245
(dp2246
g74
(dp2247
g101
g102
ssg83
g2236
sg76
(lp2248
S':'
asbag69
(g90
g71
NtRp2249
(dp2250
g74
(dp2251
sg83
g2236
sg76
(lp2252
g69
(g70
g71
NtRp2253
(dp2254
g74
(dp2255
g82
I3
ssg83
g2249
sg76
(lp2256
g830
asbasbasbag69
(g85
g71
NtRp2257
(dp2258
g74
(dp2259
sg83
g2232
sg76
(lp2260
g69
(g90
g71
NtRp2261
(dp2262
g74
(dp2263
g94
g95
ssg83
g2257
sg76
(lp2264
S'HTTP_ACCEPT_ENCODING'
p2265
asbag69
(g90
g71
NtRp2266
(dp2267
g74
(dp2268
g101
g102
ssg83
g2257
sg76
(lp2269
S':'
asbag69
(g90
g71
NtRp2270
(dp2271
g74
(dp2272
sg83
g2257
sg76
(lp2273
g69
(g70
g71
NtRp2274
(dp2275
g74
(dp2276
g82
I3
ssg83
g2270
sg76
(lp2277
g852
asbasbasbag69
(g85
g71
NtRp2278
(dp2279
g74
(dp2280
sg83
g2232
sg76
(lp2281
g69
(g90
g71
NtRp2282
(dp2283
g74
(dp2284
g94
g95
ssg83
g2278
sg76
(lp2285
S'HTTP_ACCEPT_LANGUAGE'
p2286
asbag69
(g90
g71
NtRp2287
(dp2288
g74
(dp2289
g101
g102
ssg83
g2278
sg76
(lp2290
S':'
asbag69
(g90
g71
NtRp2291
(dp2292
g74
(dp2293
sg83
g2278
sg76
(lp2294
g69
(g70
g71
NtRp2295
(dp2296
g74
(dp2297
g82
I3
ssg83
g2291
sg76
(lp2298
g874
asbasbasbag69
(g85
g71
NtRp2299
(dp2300
g74
(dp2301
sg83
g2232
sg76
(lp2302
g69
(g90
g71
NtRp2303
(dp2304
g74
(dp2305
g94
g95
ssg83
g2299
sg76
(lp2306
S'HTTP_CONNECTION'
p2307
asbag69
(g90
g71
NtRp2308
(dp2309
g74
(dp2310
g101
g102
ssg83
g2299
sg76
(lp2311
S':'
asbag69
(g90
g71
NtRp2312
(dp2313
g74
(dp2314
sg83
g2299
sg76
(lp2315
g69
(g70
g71
NtRp2316
(dp2317
g74
(dp2318
g82
I3
ssg83
g2312
sg76
(lp2319
g896
asbasbasbag69
(g85
g71
NtRp2320
(dp2321
g74
(dp2322
sg83
g2232
sg76
(lp2323
g69
(g90
g71
NtRp2324
(dp2325
g74
(dp2326
g94
g95
ssg83
g2320
sg76
(lp2327
S'HTTP_COOKIE'
p2328
asbag69
(g90
g71
NtRp2329
(dp2330
g74
(dp2331
g101
g102
ssg83
g2320
sg76
(lp2332
S':'
asbag69
(g90
g71
NtRp2333
(dp2334
g74
(dp2335
sg83
g2320
sg76
(lp2336
g69
(g70
g71
NtRp2337
(dp2338
g74
(dp2339
g82
I3
ssg83
g2333
sg76
(lp2340
g918
asbasbasbag69
(g85
g71
NtRp2341
(dp2342
g74
(dp2343
sg83
g2232
sg76
(lp2344
g69
(g90
g71
NtRp2345
(dp2346
g74
(dp2347
g94
g95
ssg83
g2341
sg76
(lp2348
S'HTTP_HOST'
p2349
asbag69
(g90
g71
NtRp2350
(dp2351
g74
(dp2352
g101
g102
ssg83
g2341
sg76
(lp2353
S':'
asbag69
(g90
g71
NtRp2354
(dp2355
g74
(dp2356
sg83
g2341
sg76
(lp2357
g69
(g70
g71
NtRp2358
(dp2359
g74
(dp2360
g82
I3
ssg83
g2354
sg76
(lp2361
g940
asbasbasbag69
(g85
g71
NtRp2362
(dp2363
g74
(dp2364
sg83
g2232
sg76
(lp2365
g69
(g90
g71
NtRp2366
(dp2367
g74
(dp2368
g94
g95
ssg83
g2362
sg76
(lp2369
S'HTTP_REFERER'
p2370
asbag69
(g90
g71
NtRp2371
(dp2372
g74
(dp2373
g101
g102
ssg83
g2362
sg76
(lp2374
S':'
asbag69
(g90
g71
NtRp2375
(dp2376
g74
(dp2377
sg83
g2362
sg76
(lp2378
g69
(g70
g71
NtRp2379
(dp2380
g74
(dp2381
g82
I3
ssg83
g2375
sg76
(lp2382
g962
asbasbasbag69
(g85
g71
NtRp2383
(dp2384
g74
(dp2385
sg83
g2232
sg76
(lp2386
g69
(g90
g71
NtRp2387
(dp2388
g74
(dp2389
g94
g95
ssg83
g2383
sg76
(lp2390
S'HTTP_USER_AGENT'
p2391
asbag69
(g90
g71
NtRp2392
(dp2393
g74
(dp2394
g101
g102
ssg83
g2383
sg76
(lp2395
S':'
asbag69
(g90
g71
NtRp2396
(dp2397
g74
(dp2398
sg83
g2383
sg76
(lp2399
g69
(g70
g71
NtRp2400
(dp2401
g74
(dp2402
g82
I3
ssg83
g2396
sg76
(lp2403
g984
asbasbasbag69
(g85
g71
NtRp2404
(dp2405
g74
(dp2406
sg83
g2232
sg76
(lp2407
g69
(g90
g71
NtRp2408
(dp2409
g74
(dp2410
g94
g95
ssg83
g2404
sg76
(lp2411
S'PATH_INFO'
p2412
asbag69
(g90
g71
NtRp2413
(dp2414
g74
(dp2415
g101
g102
ssg83
g2404
sg76
(lp2416
S':'
asbag69
(g90
g71
NtRp2417
(dp2418
g74
(dp2419
sg83
g2404
sg76
(lp2420
g69
(g70
g71
NtRp2421
(dp2422
g74
(dp2423
g82
I3
ssg83
g2417
sg76
(lp2424
g1048
asbasbasbag69
(g85
g71
NtRp2425
(dp2426
g74
(dp2427
sg83
g2232
sg76
(lp2428
g69
(g90
g71
NtRp2429
(dp2430
g74
(dp2431
g94
g95
ssg83
g2425
sg76
(lp2432
S'QUERY_STRING'
p2433
asbag69
(g90
g71
NtRp2434
(dp2435
g74
(dp2436
g101
g102
ssg83
g2425
sg76
(lp2437
S':'
asbag69
(g90
g71
NtRp2438
(dp2439
g74
(dp2440
sg83
g2425
sg76
(lp2441
g69
(g70
g71
NtRp2442
(dp2443
g74
(dp2444
g82
I3
ssg83
g2438
sg76
(lp2445
S''
asbasbasbag69
(g85
g71
NtRp2446
(dp2447
g74
(dp2448
sg83
g2232
sg76
(lp2449
g69
(g90
g71
NtRp2450
(dp2451
g74
(dp2452
g94
g95
ssg83
g2446
sg76
(lp2453
S'REMOTE_ADDR'
p2454
asbag69
(g90
g71
NtRp2455
(dp2456
g74
(dp2457
g101
g102
ssg83
g2446
sg76
(lp2458
S':'
asbag69
(g90
g71
NtRp2459
(dp2460
g74
(dp2461
sg83
g2446
sg76
(lp2462
g69
(g70
g71
NtRp2463
(dp2464
g74
(dp2465
g82
I3
ssg83
g2459
sg76
(lp2466
g202
asbasbasbag69
(g85
g71
NtRp2467
(dp2468
g74
(dp2469
sg83
g2232
sg76
(lp2470
g69
(g90
g71
NtRp2471
(dp2472
g74
(dp2473
g94
g95
ssg83
g2467
sg76
(lp2474
S'REMOTE_PORT'
p2475
asbag69
(g90
g71
NtRp2476
(dp2477
g74
(dp2478
g101
g102
ssg83
g2467
sg76
(lp2479
S':'
asbag69
(g90
g71
NtRp2480
(dp2481
g74
(dp2482
sg83
g2467
sg76
(lp2483
g69
(g70
g71
NtRp2484
(dp2485
g74
(dp2486
g82
I3
ssg83
g2480
sg76
(lp2487
g1112
asbasbasbag69
(g85
g71
NtRp2488
(dp2489
g74
(dp2490
sg83
g2232
sg76
(lp2491
g69
(g90
g71
NtRp2492
(dp2493
g74
(dp2494
g94
g95
ssg83
g2488
sg76
(lp2495
S'REQUEST_METHOD'
p2496
asbag69
(g90
g71
NtRp2497
(dp2498
g74
(dp2499
g101
g102
ssg83
g2488
sg76
(lp2500
S':'
asbag69
(g90
g71
NtRp2501
(dp2502
g74
(dp2503
sg83
g2488
sg76
(lp2504
g69
(g70
g71
NtRp2505
(dp2506
g74
(dp2507
g82
I3
ssg83
g2501
sg76
(lp2508
g1134
asbasbasbag69
(g85
g71
NtRp2509
(dp2510
g74
(dp2511
sg83
g2232
sg76
(lp2512
g69
(g90
g71
NtRp2513
(dp2514
g74
(dp2515
g94
g95
ssg83
g2509
sg76
(lp2516
S'SCRIPT_NAME'
p2517
asbag69
(g90
g71
NtRp2518
(dp2519
g74
(dp2520
g101
g102
ssg83
g2509
sg76
(lp2521
S':'
asbag69
(g90
g71
NtRp2522
(dp2523
g74
(dp2524
sg83
g2509
sg76
(lp2525
g69
(g70
g71
NtRp2526
(dp2527
g74
(dp2528
g82
I3
ssg83
g2522
sg76
(lp2529
S''
asbasbasbag69
(g85
g71
NtRp2530
(dp2531
g74
(dp2532
sg83
g2232
sg76
(lp2533
g69
(g90
g71
NtRp2534
(dp2535
g74
(dp2536
g94
g95
ssg83
g2530
sg76
(lp2537
S'SERVER_NAME'
p2538
asbag69
(g90
g71
NtRp2539
(dp2540
g74
(dp2541
g101
g102
ssg83
g2530
sg76
(lp2542
S':'
asbag69
(g90
g71
NtRp2543
(dp2544
g74
(dp2545
sg83
g2530
sg76
(lp2546
g69
(g70
g71
NtRp2547
(dp2548
g74
(dp2549
g82
I3
ssg83
g2543
sg76
(lp2550
g1177
asbasbasbag69
(g85
g71
NtRp2551
(dp2552
g74
(dp2553
sg83
g2232
sg76
(lp2554
g69
(g90
g71
NtRp2555
(dp2556
g74
(dp2557
g94
g95
ssg83
g2551
sg76
(lp2558
S'SERVER_PORT'
p2559
asbag69
(g90
g71
NtRp2560
(dp2561
g74
(dp2562
g101
g102
ssg83
g2551
sg76
(lp2563
S':'
asbag69
(g90
g71
NtRp2564
(dp2565
g74
(dp2566
sg83
g2551
sg76
(lp2567
g69
(g70
g71
NtRp2568
(dp2569
g74
(dp2570
g82
I3
ssg83
g2564
sg76
(lp2571
g1199
asbasbasbag69
(g85
g71
NtRp2572
(dp2573
g74
(dp2574
sg83
g2232
sg76
(lp2575
g69
(g90
g71
NtRp2576
(dp2577
g74
(dp2578
g94
g95
ssg83
g2572
sg76
(lp2579
S'SERVER_PROTOCOL'
p2580
asbag69
(g90
g71
NtRp2581
(dp2582
g74
(dp2583
g101
g102
ssg83
g2572
sg76
(lp2584
S':'
asbag69
(g90
g71
NtRp2585
(dp2586
g74
(dp2587
sg83
g2572
sg76
(lp2588
g69
(g70
g71
NtRp2589
(dp2590
g74
(dp2591
g82
I3
ssg83
g2585
sg76
(lp2592
g1221
asbasbasbag69
(g85
g71
NtRp2593
(dp2594
g74
(dp2595
sg83
g2232
sg76
(lp2596
g69
(g90
g71
NtRp2597
(dp2598
g74
(dp2599
g94
g95
ssg83
g2593
sg76
(lp2600
S'SERVER_SOFTWARE'
p2601
asbag69
(g90
g71
NtRp2602
(dp2603
g74
(dp2604
g101
g102
ssg83
g2593
sg76
(lp2605
S':'
asbag69
(g90
g71
NtRp2606
(dp2607
g74
(dp2608
sg83
g2593
sg76
(lp2609
g69
(g70
g71
NtRp2610
(dp2611
g74
(dp2612
g82
I3
ssg83
g2606
sg76
(lp2613
g1243
asbasbasbag69
(g85
g71
NtRp2614
(dp2615
g74
(dp2616
sg83
g2232
sg76
(lp2617
g69
(g90
g71
NtRp2618
(dp2619
g74
(dp2620
g94
g95
ssg83
g2614
sg76
(lp2621
S'wsgi.errors'
p2622
asbag69
(g90
g71
NtRp2623
(dp2624
g74
(dp2625
g101
g102
ssg83
g2614
sg76
(lp2626
S':'
asbag69
(g90
g71
NtRp2627
(dp2628
g74
(dp2629
sg83
g2614
sg76
(lp2630
g69
(g70
g71
NtRp2631
(dp2632
g74
(dp2633
g82
I3
ssg83
g2627
sg76
(lp2634
S"<open file '<stderr>', mode 'w' at 0x7f81385401e0>"
p2635
asbasbasbag69
(g85
g71
NtRp2636
(dp2637
g74
(dp2638
sg83
g2232
sg76
(lp2639
g69
(g90
g71
NtRp2640
(dp2641
g74
(dp2642
g94
g95
ssg83
g2636
sg76
(lp2643
S'wsgi.file_wrapper'
p2644
asbag69
(g90
g71
NtRp2645
(dp2646
g74
(dp2647
g101
g102
ssg83
g2636
sg76
(lp2648
S':'
asbag69
(g90
g71
NtRp2649
(dp2650
g74
(dp2651
sg83
g2636
sg76
(lp2652
g69
(g70
g71
NtRp2653
(dp2654
g74
(dp2655
g82
I3
ssg83
g2649
sg76
(lp2656
S'<class wsgiref.util.FileWrapper at 0x7f8134499bb0>'
p2657
asbasbasbag69
(g85
g71
NtRp2658
(dp2659
g74
(dp2660
sg83
g2232
sg76
(lp2661
g69
(g90
g71
NtRp2662
(dp2663
g74
(dp2664
g94
g95
ssg83
g2658
sg76
(lp2665
S'wsgi.input'
p2666
asbag69
(g90
g71
NtRp2667
(dp2668
g74
(dp2669
g101
g102
ssg83
g2658
sg76
(lp2670
S':'
asbag69
(g90
g71
NtRp2671
(dp2672
g74
(dp2673
sg83
g2658
sg76
(lp2674
g69
(g70
g71
NtRp2675
(dp2676
g74
(dp2677
g82
I3
ssg83
g2671
sg76
(lp2678
S'<cStringIO.StringO object at 0x7f8133964e68>'
p2679
asbasbasbag69
(g85
g71
NtRp2680
(dp2681
g74
(dp2682
sg83
g2232
sg76
(lp2683
g69
(g90
g71
NtRp2684
(dp2685
g74
(dp2686
g94
g95
ssg83
g2680
sg76
(lp2687
S'wsgi.multiprocess'
p2688
asbag69
(g90
g71
NtRp2689
(dp2690
g74
(dp2691
g101
g102
ssg83
g2680
sg76
(lp2692
S':'
asbag69
(g90
g71
NtRp2693
(dp2694
g74
(dp2695
sg83
g2680
sg76
(lp2696
g69
(g70
g71
NtRp2697
(dp2698
g74
(dp2699
g82
I3
ssg83
g2693
sg76
(lp2700
g112
asbasbasbag69
(g85
g71
NtRp2701
(dp2702
g74
(dp2703
sg83
g2232
sg76
(lp2704
g69
(g90
g71
NtRp2705
(dp2706
g74
(dp2707
g94
g95
ssg83
g2701
sg76
(lp2708
S'wsgi.multithread'
p2709
asbag69
(g90
g71
NtRp2710
(dp2711
g74
(dp2712
g101
g102
ssg83
g2701
sg76
(lp2713
S':'
asbag69
(g90
g71
NtRp2714
(dp2715
g74
(dp2716
sg83
g2701
sg76
(lp2717
g69
(g70
g71
NtRp2718
(dp2719
g74
(dp2720
g82
I3
ssg83
g2714
sg76
(lp2721
g1483
asbasbasbag69
(g85
g71
NtRp2722
(dp2723
g74
(dp2724
sg83
g2232
sg76
(lp2725
g69
(g90
g71
NtRp2726
(dp2727
g74
(dp2728
g94
g95
ssg83
g2722
sg76
(lp2729
S'wsgi.run_once'
p2730
asbag69
(g90
g71
NtRp2731
(dp2732
g74
(dp2733
g101
g102
ssg83
g2722
sg76
(lp2734
S':'
asbag69
(g90
g71
NtRp2735
(dp2736
g74
(dp2737
sg83
g2722
sg76
(lp2738
g69
(g70
g71
NtRp2739
(dp2740
g74
(dp2741
g82
I3
ssg83
g2735
sg76
(lp2742
g112
asbasbasbag69
(g85
g71
NtRp2743
(dp2744
g74
(dp2745
sg83
g2232
sg76
(lp2746
g69
(g90
g71
NtRp2747
(dp2748
g74
(dp2749
g94
g95
ssg83
g2743
sg76
(lp2750
S'wsgi.url_scheme'
p2751
asbag69
(g90
g71
NtRp2752
(dp2753
g74
(dp2754
g101
g102
ssg83
g2743
sg76
(lp2755
S':'
asbag69
(g90
g71
NtRp2756
(dp2757
g74
(dp2758
sg83
g2743
sg76
(lp2759
g69
(g70
g71
NtRp2760
(dp2761
g74
(dp2762
g82
I3
ssg83
g2756
sg76
(lp2763
g1526
asbasbasbag69
(g85
g71
NtRp2764
(dp2765
g74
(dp2766
sg83
g2232
sg76
(lp2767
g69
(g90
g71
NtRp2768
(dp2769
g74
(dp2770
g94
g95
ssg83
g2764
sg76
(lp2771
S'wsgi.version'
p2772
asbag69
(g90
g71
NtRp2773
(dp2774
g74
(dp2775
g101
g102
ssg83
g2764
sg76
(lp2776
S':'
asbag69
(g90
g71
NtRp2777
(dp2778
g74
(dp2779
sg83
g2764
sg76
(lp2780
g69
(g70
g71
NtRp2781
(dp2782
g74
(dp2783
g82
I3
ssg83
g2777
sg76
(lp2784
S'1'
asbasbasbasbasbasbasbasbasbasbasbasbasbsS'frames'
p2785
(lp2786
(dp2787
S'file'
p2788
S'/usr/lib/pymodules/python2.7/gluon/restricted.py'
p2789
sS'dump'
p2790
(dp2791
S'environment'
p2792
S"{'A': <class 'gluon.html.A'>, 'Auth': <class 'gluon.tools.Auth'>, 'B': <class 'gluon.html.B'>, 'BEAUTIFY': <class 'gluon.html.BEAUTIFY'>, 'BODY': <class 'gluon.html.BODY'>, 'BR': <class 'gluon.html.BR'>, 'BUTTON': <class 'gluon.html.BUTTON'>, 'CAT': <class 'gluon.html.CAT'>, 'CENTER': <class 'gluon.html.CENTER'>, 'CLEANUP': <class 'gluon.validators.CLEANUP'>, ...}"
p2793
sS'ccode'
p2794
S'<code object <module> at 0x7f81001965b0, file "/...cations/Aarogya/controllers/default.py", line 12>'
p2795
ssS'lnum'
p2796
I205
sS'lines'
p2797
(dp2798
I200
S'    try:'
p2799
sI201
S'        if type(code) == types.CodeType:'
p2800
sI202
S'            ccode = code'
p2801
sI203
S'        else:'
p2802
sI204
S'            ccode = compile2(code,layer)'
p2803
sI205
S'        exec ccode in environment'
p2804
sI206
S'    except HTTP:'
p2805
sI207
S'        raise'
p2806
sI208
S'    except RestrictedError:'
p2807
sI209
S'        # do not encapsulate (obfuscate) the original RestrictedError'
p2808
ssS'call'
p2809
S"(code='# -*- coding: utf-8 -*-\\n# this file is released ...m=form)\\n\\nresponse._vars=response._caller(signin)\\n', environment={'A': <class 'gluon.html.A'>, 'Auth': <class 'gluon.tools.Auth'>, 'B': <class 'gluon.html.B'>, 'BEAUTIFY': <class 'gluon.html.BEAUTIFY'>, 'BODY': <class 'gluon.html.BODY'>, 'BR': <class 'gluon.html.BR'>, 'BUTTON': <class 'gluon.html.BUTTON'>, 'CAT': <class 'gluon.html.CAT'>, 'CENTER': <class 'gluon.html.CENTER'>, 'CLEANUP': <class 'gluon.validators.CLEANUP'>, ...}, layer='/home/rehas/web2py/applications/Aarogya/controllers/default.py')"
p2810
sS'func'
p2811
S'restricted'
p2812
sa(dp2813
g2788
S'/home/rehas/web2py/applications/Aarogya/controllers/default.py'
p2814
sg2790
(dp2815
sg2796
I99
sg2797
(dp2816
I96
S"        response.flash='errors'"
p2817
sI97
S'    return dict(form=form)'
p2818
sI88
S''
sI89
S"    Field('address', length=256, default=''),"
p2819
sI90
S''
sI91
S"    Field('password', 'password', length=512, readable=False, label='Password')"
p2820
sI92
S'    )'
p2821
sI93
S'    if form.process().accepted:'
p2822
sI94
S"        response.flash='accepted!'"
p2823
sI95
S'    elif form.errors:'
p2824
ssg2809
S'()'
p2825
sg2811
S'<module>'
p2826
sa(dp2827
g2788
S'/usr/lib/pymodules/python2.7/gluon/globals.py'
p2828
sg2790
(dp2829
S'self'
p2830
S'undefined'
p2831
sS'f'
S'<function signin>'
p2832
ssg2796
I173
sg2797
(dp2833
I168
S'        self.menu = []             # used by the default view layout'
p2834
sI169
S'        self.files = []            # used by web2py_ajax.html'
p2835
sI170
S'        self.generic_patterns = [] # patterns to allow generic views'
p2836
sI171
S"        self.delimiters = ('{{','}}')"
p2837
sI172
S'        self._vars = None'
p2838
sI173
S'        self._caller = lambda f: f()'
p2839
sI174
S'        self._view_environment = None'
p2840
sI175
S'        self._custom_commit = None'
p2841
sI176
S'        self._custom_rollback = None'
p2842
sI177
S''
ssg2809
S'(f=<function signin>)'
p2843
sg2811
S'<lambda>'
p2844
sa(dp2845
g2788
S'/home/rehas/web2py/applications/Aarogya/controllers/default.py'
p2846
sg2790
(dp2847
S'global Field'
p2848
S"<class 'gluon.dal.Field'>"
p2849
sS'length'
p2850
g2831
sS'readable'
p2851
g2831
sS'builtinFalse'
p2852
g112
sS'label'
p2853
g2831
ssg2796
I91
sg2797
(dp2854
I86
S''
sI87
S"    Field('allergies', 'text',length=10,requires=IS_NOT_EMPTY()),"
p2855
sI88
S''
sI89
S"    Field('address', length=256, default=''),"
p2856
sI90
S''
sI91
S"    Field('password', 'password', length=512, readable=False, label='Password')"
p2857
sI92
S'    )'
p2858
sI93
S'    if form.process().accepted:'
p2859
sI94
S"        response.flash='accepted!'"
p2860
sI95
S'    elif form.errors:'
p2861
ssg2809
S'()'
p2862
sg2811
S'signin'
p2863
sa(dp2864
g2788
S'/usr/lib/pymodules/python2.7/gluon/sqlhtml.py'
p2865
sg2790
(dp2866
S'attributes'
p2867
g21
ssg2796
I1297
sg2797
(dp2868
I1292
S"        # So it won't interfear with SQLDB.define_table"
p2869
sI1293
S"        if 'table_name' in attributes:"
p2870
sI1294
S"            del attributes['table_name']"
p2871
sI1295
S''
sI1296
S'        return SQLFORM(DAL(None).define_table(table_name, *fields),'
p2872
sI1297
S'                       **attributes)'
p2873
sI1298
S''
sI1299
S'    @staticmethod'
p2874
sI1300
S'    def build_query(fields,keywords):'
p2875
sI1301
S'        from gluon import current'
p2876
ssg2809
S'(*fields=(<gluon.dal.Field object>, <gluon.dal.Field object>, <gluon.dal.Field object>, <gluon.dal.Field object>, <gluon.dal.Field object>, <gluon.dal.Field object>, <gluon.dal.Field object>, <gluon.dal.Field object>, <gluon.dal.Field object>), **attributes={})'
p2877
sg2811
S'factory'
p2878
sa(dp2879
g2788
S'/usr/lib/pymodules/python2.7/gluon/sqlhtml.py'
p2880
sg2790
(dp2881
S'default'
p2882
S'None'
p2883
sS'field'
p2884
S'<gluon.dal.Field object>'
p2885
sS'field.widget'
p2886
S"<bound method type.widget of <class 'gluon.sqlhtml.RadioWidget'>>"
p2887
sS'inp'
p2888
S'<gluon.html.INPUT object>'
p2889
ssg2796
I859
sg2797
(dp2890
I854
S"                if hasattr(field, 'widget') and field.widget:"
p2891
sI855
S'                    inp = field.widget(field, default, upload)'
p2892
sI856
S'                else:'
p2893
sI857
S'                    inp = self.widgets.upload.widget(field, default, upload)'
p2894
sI858
S"            elif hasattr(field, 'widget') and field.widget:"
p2895
sI859
S'                inp = field.widget(field, default)'
p2896
sI860
S"            elif field.type == 'boolean':"
p2897
sI861
S'                inp = self.widgets.boolean.widget(field, default)'
p2898
sI862
S'                if default:'
p2899
sI863
S"                    inpval = 'checked'"
p2900
ssg2809
S"(self=<gluon.sqlhtml.SQLFORM object>, table=<Table {'password': <gluon.dal.Field object at 0...id': <gluon.dal.Field object at 0x7f813391c250>}>, record=None, deletable=False, linkto=None, upload=None, fields=['id', 'first_name', 'last_name', 'dob', 'sex', 'email', 'phone', 'allergies', 'address', 'password'], labels=None, col3={}, submit_button='Submit', delete_label='Check to delete', showid=True, readonly=False, comments=True, keepopts=[], ignore_rw=False, record_id=None, formstyle='table3cols', buttons=['submit'], separator=': ', **attributes={})"
p2901
sg2811
g24
sa(dp2902
g2788
S'/usr/lib/pymodules/python2.7/gluon/sqlhtml.py'
p2903
sg2790
(dp2904
S'field'
p2905
S'<gluon.dal.Field object>'
p2906
ssg2796
I307
sg2797
(dp2907
I302
S'        if requires:'
p2908
sI303
S"            if hasattr(requires[0], 'options'):"
p2909
sI304
S'                options = requires[0].options()'
p2910
sI305
S'            else:'
p2911
sI306
S"                raise SyntaxError, 'widget cannot determine options of %s' \\"
p2912
sI307
S'                    % field'
p2913
sI308
S'        options = [(k, v) for k, v in options if str(v)]'
p2914
sI309
S'        opts = []'
p2915
sI310
S"        cols = attributes.get('cols',1)"
p2916
sI311
S'        totals = len(options)'
p2917
ssg2809
S"(cls=<class 'gluon.sqlhtml.RadioWidget'>, field=<gluon.dal.Field object>, value=None, **attributes={})"
p2918
sg2811
S'widget'
p2919
sasS'pyver'
p2920
S'Python 2.7.6: /usr/bin/python'
p2921
sS'session'
p2922
g69
(g70
g71
NtRp2923
(dp2924
g74
(dp2925
sg76
(lp2926
g69
(g78
g71
NtRp2927
(dp2928
g74
(dp2929
g82
I5
ssg83
Nsg76
(lp2930
sbasbsS'etype'
p2931
S"<type 'exceptions.SyntaxError'>"
p2932
sS'date'
p2933
S'Thu Apr  2 19:37:45 2015'
p2934
sS'response'
p2935
g69
(g70
g71
NtRp2936
(dp2937
g74
(dp2938
sg76
(lp2939
g69
(g78
g71
NtRp2940
(dp2941
g74
(dp2942
g82
I5
ssg83
Nsg76
(lp2943
g69
(g85
g71
NtRp2944
(dp2945
g74
(dp2946
sg83
g2940
sg76
(lp2947
g69
(g90
g71
NtRp2948
(dp2949
g74
(dp2950
g94
g95
ssg83
g2944
sg76
(lp2951
g167
asbag69
(g90
g71
NtRp2952
(dp2953
g74
(dp2954
g101
g102
ssg83
g2944
sg76
(lp2955
S':'
asbag69
(g90
g71
NtRp2956
(dp2957
g74
(dp2958
sg83
g2944
sg76
(lp2959
g69
(g70
g71
NtRp2960
(dp2961
g74
(dp2962
g82
I5
ssg83
g2956
sg76
(lp2963
S'<cStringIO.StringO object at 0x7f80de0d3110>'
p2964
asbasbasbag69
(g85
g71
NtRp2965
(dp2966
g74
(dp2967
sg83
g2940
sg76
(lp2968
g69
(g90
g71
NtRp2969
(dp2970
g74
(dp2971
g94
g95
ssg83
g2965
sg76
(lp2972
g233
asbag69
(g90
g71
NtRp2973
(dp2974
g74
(dp2975
g101
g102
ssg83
g2965
sg76
(lp2976
S':'
asbag69
(g90
g71
NtRp2977
(dp2978
g74
(dp2979
sg83
g2965
sg76
(lp2980
g69
(g70
g71
NtRp2981
(dp2982
g74
(dp2983
g82
I5
ssg83
g2977
sg76
(lp2984
g69
(g78
g71
NtRp2985
(dp2986
g74
(dp2987
g82
I4
ssg83
Nsg76
(lp2988
g69
(g85
g71
NtRp2989
(dp2990
g74
(dp2991
sg83
g2985
sg76
(lp2992
g69
(g90
g71
NtRp2993
(dp2994
g74
(dp2995
g94
g95
ssg83
g2989
sg76
(lp2996
S'session_id_aarogya'
p2997
asbag69
(g90
g71
NtRp2998
(dp2999
g74
(dp3000
g101
g102
ssg83
g2989
sg76
(lp3001
S':'
asbag69
(g90
g71
NtRp3002
(dp3003
g74
(dp3004
sg83
g2989
sg76
(lp3005
g69
(g70
g71
NtRp3006
(dp3007
g74
(dp3008
g82
I4
ssg83
g3002
sg76
(lp3009
g69
(g78
g71
NtRp3010
(dp3011
g74
(dp3012
g82
I3
ssg83
Nsg76
(lp3013
g69
(g85
g71
NtRp3014
(dp3015
g74
(dp3016
sg83
g3010
sg76
(lp3017
g69
(g90
g71
NtRp3018
(dp3019
g74
(dp3020
g94
g95
ssg83
g3014
sg76
(lp3021
g283
asbag69
(g90
g71
NtRp3022
(dp3023
g74
(dp3024
g101
g102
ssg83
g3014
sg76
(lp3025
S':'
asbag69
(g90
g71
NtRp3026
(dp3027
g74
(dp3028
sg83
g3014
sg76
(lp3029
g69
(g70
g71
NtRp3030
(dp3031
g74
(dp3032
g82
I3
ssg83
g3026
sg76
(lp3033
S''
asbasbasbag69
(g85
g71
NtRp3034
(dp3035
g74
(dp3036
sg83
g3010
sg76
(lp3037
g69
(g90
g71
NtRp3038
(dp3039
g74
(dp3040
g94
g95
ssg83
g3034
sg76
(lp3041
g304
asbag69
(g90
g71
NtRp3042
(dp3043
g74
(dp3044
g101
g102
ssg83
g3034
sg76
(lp3045
S':'
asbag69
(g90
g71
NtRp3046
(dp3047
g74
(dp3048
sg83
g3034
sg76
(lp3049
g69
(g70
g71
NtRp3050
(dp3051
g74
(dp3052
g82
I3
ssg83
g3046
sg76
(lp3053
S''
asbasbasbag69
(g85
g71
NtRp3054
(dp3055
g74
(dp3056
sg83
g3010
sg76
(lp3057
g69
(g90
g71
NtRp3058
(dp3059
g74
(dp3060
g94
g95
ssg83
g3054
sg76
(lp3061
g325
asbag69
(g90
g71
NtRp3062
(dp3063
g74
(dp3064
g101
g102
ssg83
g3054
sg76
(lp3065
S':'
asbag69
(g90
g71
NtRp3066
(dp3067
g74
(dp3068
sg83
g3054
sg76
(lp3069
g69
(g70
g71
NtRp3070
(dp3071
g74
(dp3072
g82
I3
ssg83
g3066
sg76
(lp3073
S''
asbasbasbag69
(g85
g71
NtRp3074
(dp3075
g74
(dp3076
sg83
g3010
sg76
(lp3077
g69
(g90
g71
NtRp3078
(dp3079
g74
(dp3080
g94
g95
ssg83
g3074
sg76
(lp3081
g346
asbag69
(g90
g71
NtRp3082
(dp3083
g74
(dp3084
g101
g102
ssg83
g3074
sg76
(lp3085
S':'
asbag69
(g90
g71
NtRp3086
(dp3087
g74
(dp3088
sg83
g3074
sg76
(lp3089
g69
(g70
g71
NtRp3090
(dp3091
g74
(dp3092
g82
I3
ssg83
g3086
sg76
(lp3093
S''
asbasbasbag69
(g85
g71
NtRp3094
(dp3095
g74
(dp3096
sg83
g3010
sg76
(lp3097
g69
(g90
g71
NtRp3098
(dp3099
g74
(dp3100
g94
g95
ssg83
g3094
sg76
(lp3101
g367
asbag69
(g90
g71
NtRp3102
(dp3103
g74
(dp3104
g101
g102
ssg83
g3094
sg76
(lp3105
S':'
asbag69
(g90
g71
NtRp3106
(dp3107
g74
(dp3108
sg83
g3094
sg76
(lp3109
g69
(g70
g71
NtRp3110
(dp3111
g74
(dp3112
g82
I3
ssg83
g3106
sg76
(lp3113
S''
asbasbasbag69
(g85
g71
NtRp3114
(dp3115
g74
(dp3116
sg83
g3010
sg76
(lp3117
g69
(g90
g71
NtRp3118
(dp3119
g74
(dp3120
g94
g95
ssg83
g3114
sg76
(lp3121
g388
asbag69
(g90
g71
NtRp3122
(dp3123
g74
(dp3124
g101
g102
ssg83
g3114
sg76
(lp3125
S':'
asbag69
(g90
g71
NtRp3126
(dp3127
g74
(dp3128
sg83
g3114
sg76
(lp3129
g69
(g70
g71
NtRp3130
(dp3131
g74
(dp3132
g82
I3
ssg83
g3126
sg76
(lp3133
S'/'
asbasbasbag69
(g85
g71
NtRp3134
(dp3135
g74
(dp3136
sg83
g3010
sg76
(lp3137
g69
(g90
g71
NtRp3138
(dp3139
g74
(dp3140
g94
g95
ssg83
g3134
sg76
(lp3141
g409
asbag69
(g90
g71
NtRp3142
(dp3143
g74
(dp3144
g101
g102
ssg83
g3134
sg76
(lp3145
S':'
asbag69
(g90
g71
NtRp3146
(dp3147
g74
(dp3148
sg83
g3134
sg76
(lp3149
g69
(g70
g71
NtRp3150
(dp3151
g74
(dp3152
g82
I3
ssg83
g3146
sg76
(lp3153
S''
asbasbasbag69
(g85
g71
NtRp3154
(dp3155
g74
(dp3156
sg83
g3010
sg76
(lp3157
g69
(g90
g71
NtRp3158
(dp3159
g74
(dp3160
g94
g95
ssg83
g3154
sg76
(lp3161
g430
asbag69
(g90
g71
NtRp3162
(dp3163
g74
(dp3164
g101
g102
ssg83
g3154
sg76
(lp3165
S':'
asbag69
(g90
g71
NtRp3166
(dp3167
g74
(dp3168
sg83
g3154
sg76
(lp3169
g69
(g70
g71
NtRp3170
(dp3171
g74
(dp3172
g82
I3
ssg83
g3166
sg76
(lp3173
S''
asbasbasbasbasbasbasbasbasbasbasbag69
(g85
g71
NtRp3174
(dp3175
g74
(dp3176
sg83
g2940
sg76
(lp3177
g69
(g90
g71
NtRp3178
(dp3179
g74
(dp3180
g94
g95
ssg83
g3174
sg76
(lp3181
S'delimiters'
p3182
asbag69
(g90
g71
NtRp3183
(dp3184
g74
(dp3185
g101
g102
ssg83
g3174
sg76
(lp3186
S':'
asbag69
(g90
g71
NtRp3187
(dp3188
g74
(dp3189
sg83
g3174
sg76
(lp3190
g69
(g70
g71
NtRp3191
(dp3192
g74
(dp3193
g82
I5
ssg83
g3187
sg76
(lp3194
g69
(g78
g71
NtRp3195
(dp3196
g74
(dp3197
g82
I4
ssg83
Nsg76
(lp3198
g69
(g85
g71
NtRp3199
(dp3200
g74
(dp3201
sg83
g3195
sg76
(lp3202
g69
(g90
g71
NtRp3203
(dp3204
g74
(dp3205
sg83
g3199
sg76
(lp3206
g69
(g70
g71
NtRp3207
(dp3208
g74
(dp3209
g82
I4
ssg83
g3203
sg76
(lp3210
S'{{'
p3211
asbasbasbag69
(g85
g71
NtRp3212
(dp3213
g74
(dp3214
sg83
g3195
sg76
(lp3215
g69
(g90
g71
NtRp3216
(dp3217
g74
(dp3218
sg83
g3212
sg76
(lp3219
g69
(g70
g71
NtRp3220
(dp3221
g74
(dp3222
g82
I4
ssg83
g3216
sg76
(lp3223
S'}}'
p3224
asbasbasbasbasbasbasbag69
(g85
g71
NtRp3225
(dp3226
g74
(dp3227
sg83
g2940
sg76
(lp3228
g69
(g90
g71
NtRp3229
(dp3230
g74
(dp3231
g94
g95
ssg83
g3225
sg76
(lp3232
S'files'
p3233
asbag69
(g90
g71
NtRp3234
(dp3235
g74
(dp3236
g101
g102
ssg83
g3225
sg76
(lp3237
S':'
asbag69
(g90
g71
NtRp3238
(dp3239
g74
(dp3240
sg83
g3225
sg76
(lp3241
g69
(g70
g71
NtRp3242
(dp3243
g74
(dp3244
g82
I5
ssg83
g3238
sg76
(lp3245
g69
(g78
g71
NtRp3246
(dp3247
g74
(dp3248
g82
I4
ssg83
Nsg76
(lp3249
sbasbasbasbag69
(g85
g71
NtRp3250
(dp3251
g74
(dp3252
sg83
g2940
sg76
(lp3253
g69
(g90
g71
NtRp3254
(dp3255
g74
(dp3256
g94
g95
ssg83
g3250
sg76
(lp3257
S'flash'
p3258
asbag69
(g90
g71
NtRp3259
(dp3260
g74
(dp3261
g101
g102
ssg83
g3250
sg76
(lp3262
S':'
asbag69
(g90
g71
NtRp3263
(dp3264
g74
(dp3265
sg83
g3250
sg76
(lp3266
g69
(g70
g71
NtRp3267
(dp3268
g74
(dp3269
g82
I5
ssg83
g3263
sg76
(lp3270
S''
asbasbasbag69
(g85
g71
NtRp3271
(dp3272
g74
(dp3273
sg83
g2940
sg76
(lp3274
g69
(g90
g71
NtRp3275
(dp3276
g74
(dp3277
g94
g95
ssg83
g3271
sg76
(lp3278
S'generic_patterns'
p3279
asbag69
(g90
g71
NtRp3280
(dp3281
g74
(dp3282
g101
g102
ssg83
g3271
sg76
(lp3283
S':'
asbag69
(g90
g71
NtRp3284
(dp3285
g74
(dp3286
sg83
g3271
sg76
(lp3287
g69
(g70
g71
NtRp3288
(dp3289
g74
(dp3290
g82
I5
ssg83
g3284
sg76
(lp3291
g69
(g78
g71
NtRp3292
(dp3293
g74
(dp3294
g82
I4
ssg83
Nsg76
(lp3295
g69
(g85
g71
NtRp3296
(dp3297
g74
(dp3298
sg83
g3292
sg76
(lp3299
g69
(g90
g71
NtRp3300
(dp3301
g74
(dp3302
sg83
g3296
sg76
(lp3303
g69
(g70
g71
NtRp3304
(dp3305
g74
(dp3306
g82
I4
ssg83
g3300
sg76
(lp3307
S'*'
asbasbasbasbasbasbasbag69
(g85
g71
NtRp3308
(dp3309
g74
(dp3310
sg83
g2940
sg76
(lp3311
g69
(g90
g71
NtRp3312
(dp3313
g74
(dp3314
g94
g95
ssg83
g3308
sg76
(lp3315
S'headers'
p3316
asbag69
(g90
g71
NtRp3317
(dp3318
g74
(dp3319
g101
g102
ssg83
g3308
sg76
(lp3320
S':'
asbag69
(g90
g71
NtRp3321
(dp3322
g74
(dp3323
sg83
g3308
sg76
(lp3324
g69
(g70
g71
NtRp3325
(dp3326
g74
(dp3327
g82
I5
ssg83
g3321
sg76
(lp3328
g69
(g78
g71
NtRp3329
(dp3330
g74
(dp3331
g82
I4
ssg83
Nsg76
(lp3332
g69
(g85
g71
NtRp3333
(dp3334
g74
(dp3335
sg83
g3329
sg76
(lp3336
g69
(g90
g71
NtRp3337
(dp3338
g74
(dp3339
g94
g95
ssg83
g3333
sg76
(lp3340
S'Cache-Control'
p3341
asbag69
(g90
g71
NtRp3342
(dp3343
g74
(dp3344
g101
g102
ssg83
g3333
sg76
(lp3345
S':'
asbag69
(g90
g71
NtRp3346
(dp3347
g74
(dp3348
sg83
g3333
sg76
(lp3349
g69
(g70
g71
NtRp3350
(dp3351
g74
(dp3352
g82
I4
ssg83
g3346
sg76
(lp3353
S'no-store, no-cache, must-revalidate, post-check=0, pre-check=0'
p3354
asbasbasbag69
(g85
g71
NtRp3355
(dp3356
g74
(dp3357
sg83
g3329
sg76
(lp3358
g69
(g90
g71
NtRp3359
(dp3360
g74
(dp3361
g94
g95
ssg83
g3355
sg76
(lp3362
S'Content-Type'
p3363
asbag69
(g90
g71
NtRp3364
(dp3365
g74
(dp3366
g101
g102
ssg83
g3355
sg76
(lp3367
S':'
asbag69
(g90
g71
NtRp3368
(dp3369
g74
(dp3370
sg83
g3355
sg76
(lp3371
g69
(g70
g71
NtRp3372
(dp3373
g74
(dp3374
g82
I4
ssg83
g3368
sg76
(lp3375
S'text/html; charset=utf-8'
p3376
asbasbasbag69
(g85
g71
NtRp3377
(dp3378
g74
(dp3379
sg83
g3329
sg76
(lp3380
g69
(g90
g71
NtRp3381
(dp3382
g74
(dp3383
g94
g95
ssg83
g3377
sg76
(lp3384
S'Expires'
p3385
asbag69
(g90
g71
NtRp3386
(dp3387
g74
(dp3388
g101
g102
ssg83
g3377
sg76
(lp3389
S':'
asbag69
(g90
g71
NtRp3390
(dp3391
g74
(dp3392
sg83
g3377
sg76
(lp3393
g69
(g70
g71
NtRp3394
(dp3395
g74
(dp3396
g82
I4
ssg83
g3390
sg76
(lp3397
S'Thu, 02 Apr 2015 14:07:45 GMT'
p3398
asbasbasbag69
(g85
g71
NtRp3399
(dp3400
g74
(dp3401
sg83
g3329
sg76
(lp3402
g69
(g90
g71
NtRp3403
(dp3404
g74
(dp3405
g94
g95
ssg83
g3399
sg76
(lp3406
S'Pragma'
p3407
asbag69
(g90
g71
NtRp3408
(dp3409
g74
(dp3410
g101
g102
ssg83
g3399
sg76
(lp3411
S':'
asbag69
(g90
g71
NtRp3412
(dp3413
g74
(dp3414
sg83
g3399
sg76
(lp3415
g69
(g70
g71
NtRp3416
(dp3417
g74
(dp3418
g82
I4
ssg83
g3412
sg76
(lp3419
S'no-cache'
p3420
asbasbasbag69
(g85
g71
NtRp3421
(dp3422
g74
(dp3423
sg83
g3329
sg76
(lp3424
g69
(g90
g71
NtRp3425
(dp3426
g74
(dp3427
g94
g95
ssg83
g3421
sg76
(lp3428
S'X-Powered-By'
p3429
asbag69
(g90
g71
NtRp3430
(dp3431
g74
(dp3432
g101
g102
ssg83
g3421
sg76
(lp3433
S':'
asbag69
(g90
g71
NtRp3434
(dp3435
g74
(dp3436
sg83
g3421
sg76
(lp3437
g69
(g70
g71
NtRp3438
(dp3439
g74
(dp3440
g82
I4
ssg83
g3434
sg76
(lp3441
S'web2py'
p3442
asbasbasbasbasbasbasbag69
(g85
g71
NtRp3443
(dp3444
g74
(dp3445
sg83
g2940
sg76
(lp3446
g69
(g90
g71
NtRp3447
(dp3448
g74
(dp3449
g94
g95
ssg83
g3443
sg76
(lp3450
S'menu'
p3451
asbag69
(g90
g71
NtRp3452
(dp3453
g74
(dp3454
g101
g102
ssg83
g3443
sg76
(lp3455
S':'
asbag69
(g90
g71
NtRp3456
(dp3457
g74
(dp3458
sg83
g3443
sg76
(lp3459
g69
(g70
g71
NtRp3460
(dp3461
g74
(dp3462
g82
I5
ssg83
g3456
sg76
(lp3463
g69
(g78
g71
NtRp3464
(dp3465
g74
(dp3466
g82
I4
ssg83
Nsg76
(lp3467
g69
(g85
g71
NtRp3468
(dp3469
g74
(dp3470
sg83
g3464
sg76
(lp3471
g69
(g90
g71
NtRp3472
(dp3473
g74
(dp3474
sg83
g3468
sg76
(lp3475
g69
(g70
g71
NtRp3476
(dp3477
g74
(dp3478
g82
I4
ssg83
g3472
sg76
(lp3479
g69
(g78
g71
NtRp3480
(dp3481
g74
(dp3482
g82
I3
ssg83
Nsg76
(lp3483
g69
(g85
g71
NtRp3484
(dp3485
g74
(dp3486
sg83
g3480
sg76
(lp3487
g69
(g90
g71
NtRp3488
(dp3489
g74
(dp3490
sg83
g3484
sg76
(lp3491
g69
(g70
g71
NtRp3492
(dp3493
g74
(dp3494
g82
I3
ssg83
g3488
sg76
(lp3495
cgluon.languages
lazyT_unpickle
p3496
(S't\x04\x00\x00\x00Home'
tRp3497
asbasbasbag69
(g85
g71
NtRp3498
(dp3499
g74
(dp3500
sg83
g3480
sg76
(lp3501
g69
(g90
g71
NtRp3502
(dp3503
g74
(dp3504
sg83
g3498
sg76
(lp3505
g69
(g70
g71
NtRp3506
(dp3507
g74
(dp3508
g82
I3
ssg83
g3502
sg76
(lp3509
g112
asbasbasbag69
(g85
g71
NtRp3510
(dp3511
g74
(dp3512
sg83
g3480
sg76
(lp3513
g69
(g90
g71
NtRp3514
(dp3515
g74
(dp3516
sg83
g3510
sg76
(lp3517
g69
(g70
g71
NtRp3518
(dp3519
g74
(dp3520
g82
I3
ssg83
g3514
sg76
(lp3521
S'/Aarogya/default/index'
p3522
asbasbasbag69
(g85
g71
NtRp3523
(dp3524
g74
(dp3525
sg83
g3480
sg76
(lp3526
g69
(g90
g71
NtRp3527
(dp3528
g74
(dp3529
sg83
g3523
sg76
(lp3530
g69
(g70
g71
NtRp3531
(dp3532
g74
(dp3533
g82
I3
ssg83
g3527
sg76
(lp3534
g69
(g78
g71
NtRp3535
(dp3536
g74
(dp3537
g82
I2
ssg83
Nsg76
(lp3538
sbasbasbasbasbasbasbasbag69
(g85
g71
NtRp3539
(dp3540
g74
(dp3541
sg83
g3464
sg76
(lp3542
g69
(g90
g71
NtRp3543
(dp3544
g74
(dp3545
sg83
g3539
sg76
(lp3546
g69
(g70
g71
NtRp3547
(dp3548
g74
(dp3549
g82
I4
ssg83
g3543
sg76
(lp3550
g69
(g78
g71
NtRp3551
(dp3552
g74
(dp3553
g82
I3
ssg83
Nsg76
(lp3554
g69
(g85
g71
NtRp3555
(dp3556
g74
(dp3557
sg83
g3551
sg76
(lp3558
g69
(g90
g71
NtRp3559
(dp3560
g74
(dp3561
sg83
g3555
sg76
(lp3562
g69
(g70
g71
NtRp3563
(dp3564
g74
(dp3565
g82
I3
ssg83
g3559
sg76
(lp3566
g69
(cgluon.html
SPAN
p3567
g71
NtRp3568
(dp3569
g74
(dp3570
g94
S'color:yellow'
p3571
ssg83
Nsg76
(lp3572
g3442
asbasbasbasbag69
(g85
g71
NtRp3573
(dp3574
g74
(dp3575
sg83
g3551
sg76
(lp3576
g69
(g90
g71
NtRp3577
(dp3578
g74
(dp3579
sg83
g3573
sg76
(lp3580
g69
(g70
g71
NtRp3581
(dp3582
g74
(dp3583
g82
I3
ssg83
g3577
sg76
(lp3584
g112
asbasbasbag69
(g85
g71
NtRp3585
(dp3586
g74
(dp3587
sg83
g3551
sg76
(lp3588
g69
(g90
g71
NtRp3589
(dp3590
g74
(dp3591
sg83
g3585
sg76
(lp3592
g69
(g70
g71
NtRp3593
(dp3594
g74
(dp3595
g82
I3
ssg83
g3589
sg76
(lp3596
S'None'
p3597
asbasbasbag69
(g85
g71
NtRp3598
(dp3599
g74
(dp3600
sg83
g3551
sg76
(lp3601
g69
(g90
g71
NtRp3602
(dp3603
g74
(dp3604
sg83
g3598
sg76
(lp3605
g69
(g70
g71
NtRp3606
(dp3607
g74
(dp3608
g82
I3
ssg83
g3602
sg76
(lp3609
g69
(g78
g71
NtRp3610
(dp3611
g74
(dp3612
g82
I2
ssg83
Nsg76
(lp3613
g69
(g85
g71
NtRp3614
(dp3615
g74
(dp3616
sg83
g3610
sg76
(lp3617
g69
(g90
g71
NtRp3618
(dp3619
g74
(dp3620
sg83
g3614
sg76
(lp3621
g69
(g70
g71
NtRp3622
(dp3623
g74
(dp3624
g82
I2
ssg83
g3618
sg76
(lp3625
g69
(g78
g71
NtRp3626
(dp3627
g74
(dp3628
g82
I1
ssg83
Nsg76
(lp3629
g69
(g85
g71
NtRp3630
(dp3631
g74
(dp3632
sg83
g3626
sg76
(lp3633
g69
(g90
g71
NtRp3634
(dp3635
g74
(dp3636
sg83
g3630
sg76
(lp3637
g69
(g70
g71
NtRp3638
(dp3639
g74
(dp3640
g82
I1
ssg83
g3634
sg76
(lp3641
g3496
(S's\x08\x00\x00\x00My Sites'
tRp3642
asbasbasbag69
(g85
g71
NtRp3643
(dp3644
g74
(dp3645
sg83
g3626
sg76
(lp3646
g69
(g90
g71
NtRp3647
(dp3648
g74
(dp3649
sg83
g3643
sg76
(lp3650
g69
(g70
g71
NtRp3651
(dp3652
g74
(dp3653
g82
I1
ssg83
g3647
sg76
(lp3654
I00
asbasbasbag69
(g85
g71
NtRp3655
(dp3656
g74
(dp3657
sg83
g3626
sg76
(lp3658
g69
(g90
g71
NtRp3659
(dp3660
g74
(dp3661
sg83
g3655
sg76
(lp3662
g69
(g70
g71
NtRp3663
(dp3664
g74
(dp3665
g82
I1
ssg83
g3659
sg76
(lp3666
S'/admin/default/site'
p3667
asbasbasbasbasbasbasbag69
(g85
g71
NtRp3668
(dp3669
g74
(dp3670
sg83
g3610
sg76
(lp3671
g69
(g90
g71
NtRp3672
(dp3673
g74
(dp3674
sg83
g3668
sg76
(lp3675
g69
(g70
g71
NtRp3676
(dp3677
g74
(dp3678
g82
I2
ssg83
g3672
sg76
(lp3679
g69
(g78
g71
NtRp3680
(dp3681
g74
(dp3682
g82
I1
ssg83
Nsg76
(lp3683
g69
(g85
g71
NtRp3684
(dp3685
g74
(dp3686
sg83
g3680
sg76
(lp3687
g69
(g90
g71
NtRp3688
(dp3689
g74
(dp3690
sg83
g3684
sg76
(lp3691
g69
(g70
g71
NtRp3692
(dp3693
g74
(dp3694
g82
I1
ssg83
g3688
sg76
(lp3695
g3496
(S's\x08\x00\x00\x00This App'
tRp3696
asbasbasbag69
(g85
g71
NtRp3697
(dp3698
g74
(dp3699
sg83
g3680
sg76
(lp3700
g69
(g90
g71
NtRp3701
(dp3702
g74
(dp3703
sg83
g3697
sg76
(lp3704
g69
(g70
g71
NtRp3705
(dp3706
g74
(dp3707
g82
I1
ssg83
g3701
sg76
(lp3708
I00
asbasbasbag69
(g85
g71
NtRp3709
(dp3710
g74
(dp3711
sg83
g3680
sg76
(lp3712
g69
(g90
g71
NtRp3713
(dp3714
g74
(dp3715
sg83
g3709
sg76
(lp3716
g69
(g70
g71
NtRp3717
(dp3718
g74
(dp3719
g82
I1
ssg83
g3713
sg76
(lp3720
S'/admin/default/design/Aarogya'
p3721
asbasbasbag69
(g85
g71
NtRp3722
(dp3723
g74
(dp3724
sg83
g3680
sg76
(lp3725
g69
(g90
g71
NtRp3726
(dp3727
g74
(dp3728
sg83
g3722
sg76
(lp3729
g69
(g70
g71
NtRp3730
(dp3731
g74
(dp3732
g82
I1
ssg83
g3726
sg76
(lp3733
(lp3734
(g3496
(S't\n\x00\x00\x00Controller'
tRp3735
I00
S'/admin/default/edit/Aarogya/controllers/default.py'
tp3736
a(g3496
(S't\x04\x00\x00\x00View'
tRp3737
I00
S'/admin/default/edit/Aarogya/views/default/signin.html'
tp3738
a(g3496
(S't\x06\x00\x00\x00Layout'
tRp3739
I00
S'/admin/default/edit/Aarogya/views/layout.html'
tp3740
a(g3496
(S't\n\x00\x00\x00Stylesheet'
tRp3741
I00
S'/admin/default/edit/Aarogya/static/css/web2py.css'
tp3742
a(g3496
(S's\x08\x00\x00\x00DB Model'
tRp3743
I00
S'/admin/default/edit/Aarogya/models/db.py'
tp3744
a(g3496
(S's\n\x00\x00\x00Menu Model'
tRp3745
I00
S'/admin/default/edit/Aarogya/models/menu.py'
tp3746
a(g3496
(S't\x08\x00\x00\x00Database'
tRp3747
I00
S'/Aarogya/appadmin/index'
tp3748
a(g3496
(S't\x06\x00\x00\x00Errors'
tRp3749
I00
S'/admin/default/errors/Aarogya'
tp3750
a(g3496
(S't\x05\x00\x00\x00About'
tRp3751
I00
S'/admin/default/about/Aarogya'
tp3752
aasbasbasbasbasbasbasbag69
(g85
g71
NtRp3753
(dp3754
g74
(dp3755
sg83
g3610
sg76
(lp3756
g69
(g90
g71
NtRp3757
(dp3758
g74
(dp3759
sg83
g3753
sg76
(lp3760
g69
(g70
g71
NtRp3761
(dp3762
g74
(dp3763
g82
I2
ssg83
g3757
sg76
(lp3764
g69
(g78
g71
NtRp3765
(dp3766
g74
(dp3767
g82
I1
ssg83
Nsg76
(lp3768
g69
(g85
g71
NtRp3769
(dp3770
g74
(dp3771
sg83
g3765
sg76
(lp3772
g69
(g90
g71
NtRp3773
(dp3774
g74
(dp3775
sg83
g3769
sg76
(lp3776
g69
(g70
g71
NtRp3777
(dp3778
g74
(dp3779
g82
I1
ssg83
g3773
sg76
(lp3780
S'web2py.com'
p3781
asbasbasbag69
(g85
g71
NtRp3782
(dp3783
g74
(dp3784
sg83
g3765
sg76
(lp3785
g69
(g90
g71
NtRp3786
(dp3787
g74
(dp3788
sg83
g3782
sg76
(lp3789
g69
(g70
g71
NtRp3790
(dp3791
g74
(dp3792
g82
I1
ssg83
g3786
sg76
(lp3793
I00
asbasbasbag69
(g85
g71
NtRp3794
(dp3795
g74
(dp3796
sg83
g3765
sg76
(lp3797
g69
(g90
g71
NtRp3798
(dp3799
g74
(dp3800
sg83
g3794
sg76
(lp3801
g69
(g70
g71
NtRp3802
(dp3803
g74
(dp3804
g82
I1
ssg83
g3798
sg76
(lp3805
S'http://www.web2py.com'
p3806
asbasbasbag69
(g85
g71
NtRp3807
(dp3808
g74
(dp3809
sg83
g3765
sg76
(lp3810
g69
(g90
g71
NtRp3811
(dp3812
g74
(dp3813
sg83
g3807
sg76
(lp3814
g69
(g70
g71
NtRp3815
(dp3816
g74
(dp3817
g82
I1
ssg83
g3811
sg76
(lp3818
(lp3819
(g3496
(S't\x08\x00\x00\x00Download'
tRp3820
I00
S'http://www.web2py.com/examples/default/download'
p3821
tp3822
a(g3496
(S't\x07\x00\x00\x00Support'
tRp3823
I00
S'http://www.web2py.com/examples/default/support'
p3824
tp3825
a(g3496
(S't\x04\x00\x00\x00Demo'
tRp3826
I00
S'http://web2py.com/demo_admin'
p3827
tp3828
a(g3496
(S's\x0e\x00\x00\x00Quick Examples'
tRp3829
I00
S'http://web2py.com/examples/default/examples'
p3830
tp3831
a(g3496
(S't\x03\x00\x00\x00FAQ'
tRp3832
I00
S'http://web2py.com/AlterEgo'
p3833
tp3834
a(g3496
(S't\x06\x00\x00\x00Videos'
tRp3835
I00
S'http://www.web2py.com/examples/default/videos/'
p3836
tp3837
a(g3496
(S's\x11\x00\x00\x00Free Applications'
tRp3838
I00
S'http://web2py.com/appliances'
p3839
tp3840
a(g3496
(S't\x07\x00\x00\x00Plugins'
tRp3841
I00
S'http://web2py.com/plugins'
p3842
tp3843
a(g3496
(S't\x07\x00\x00\x00Layouts'
tRp3844
I00
S'http://web2py.com/layouts'
p3845
tp3846
a(g3496
(S't\x07\x00\x00\x00Recipes'
tRp3847
I00
S'http://web2pyslices.com/'
p3848
tp3849
a(g3496
(S't\x08\x00\x00\x00Semantic'
tRp3850
I00
S'http://web2py.com/semantic'
p3851
tp3852
aasbasbasbasbasbasbasbag69
(g85
g71
NtRp3853
(dp3854
g74
(dp3855
sg83
g3610
sg76
(lp3856
g69
(g90
g71
NtRp3857
(dp3858
g74
(dp3859
sg83
g3853
sg76
(lp3860
g69
(g70
g71
NtRp3861
(dp3862
g74
(dp3863
g82
I2
ssg83
g3857
sg76
(lp3864
g69
(g78
g71
NtRp3865
(dp3866
g74
(dp3867
g82
I1
ssg83
Nsg76
(lp3868
g69
(g85
g71
NtRp3869
(dp3870
g74
(dp3871
sg83
g3865
sg76
(lp3872
g69
(g90
g71
NtRp3873
(dp3874
g74
(dp3875
sg83
g3869
sg76
(lp3876
g69
(g70
g71
NtRp3877
(dp3878
g74
(dp3879
g82
I1
ssg83
g3873
sg76
(lp3880
g3496
(S't\r\x00\x00\x00Documentation'
tRp3881
asbasbasbag69
(g85
g71
NtRp3882
(dp3883
g74
(dp3884
sg83
g3865
sg76
(lp3885
g69
(g90
g71
NtRp3886
(dp3887
g74
(dp3888
sg83
g3882
sg76
(lp3889
g69
(g70
g71
NtRp3890
(dp3891
g74
(dp3892
g82
I1
ssg83
g3886
sg76
(lp3893
I00
asbasbasbag69
(g85
g71
NtRp3894
(dp3895
g74
(dp3896
sg83
g3865
sg76
(lp3897
g69
(g90
g71
NtRp3898
(dp3899
g74
(dp3900
sg83
g3894
sg76
(lp3901
g69
(g70
g71
NtRp3902
(dp3903
g74
(dp3904
g82
I1
ssg83
g3898
sg76
(lp3905
S'http://www.web2py.com/book'
p3906
asbasbasbag69
(g85
g71
NtRp3907
(dp3908
g74
(dp3909
sg83
g3865
sg76
(lp3910
g69
(g90
g71
NtRp3911
(dp3912
g74
(dp3913
sg83
g3907
sg76
(lp3914
g69
(g70
g71
NtRp3915
(dp3916
g74
(dp3917
g82
I1
ssg83
g3911
sg76
(lp3918
(lp3919
(g3496
(S't\x07\x00\x00\x00Preface'
tRp3920
I00
S'http://www.web2py.com/book/default/chapter/00'
p3921
tp3922
a(g3496
(S't\x0c\x00\x00\x00Introduction'
tRp3923
I00
S'http://www.web2py.com/book/default/chapter/01'
p3924
tp3925
a(g3496
(S't\x06\x00\x00\x00Python'
tRp3926
I00
S'http://www.web2py.com/book/default/chapter/02'
p3927
tp3928
a(g3496
(S't\x08\x00\x00\x00Overview'
tRp3929
I00
S'http://www.web2py.com/book/default/chapter/03'
p3930
tp3931
a(g3496
(S's\x08\x00\x00\x00The Core'
tRp3932
I00
S'http://www.web2py.com/book/default/chapter/04'
p3933
tp3934
a(g3496
(S's\t\x00\x00\x00The Views'
tRp3935
I00
S'http://www.web2py.com/book/default/chapter/05'
p3936
tp3937
a(g3496
(S't\x08\x00\x00\x00Database'
tRp3938
I00
S'http://www.web2py.com/book/default/chapter/06'
p3939
tp3940
a(g3496
(S's\x14\x00\x00\x00Forms and Validators'
tRp3941
I00
S'http://www.web2py.com/book/default/chapter/07'
p3942
tp3943
a(g3496
(S's\r\x00\x00\x00Email and SMS'
tRp3944
I00
S'http://www.web2py.com/book/default/chapter/08'
p3945
tp3946
a(g3496
(S's\x0e\x00\x00\x00Access Control'
tRp3947
I00
S'http://www.web2py.com/book/default/chapter/09'
p3948
tp3949
a(g3496
(S't\x08\x00\x00\x00Services'
tRp3950
I00
S'http://www.web2py.com/book/default/chapter/10'
p3951
tp3952
a(g3496
(S's\x0c\x00\x00\x00Ajax Recipes'
tRp3953
I00
S'http://www.web2py.com/book/default/chapter/11'
p3954
tp3955
a(g3496
(S's\x16\x00\x00\x00Components and Plugins'
tRp3956
I00
S'http://www.web2py.com/book/default/chapter/12'
p3957
tp3958
a(g3496
(S's\x12\x00\x00\x00Deployment Recipes'
tRp3959
I00
S'http://www.web2py.com/book/default/chapter/13'
p3960
tp3961
a(g3496
(S's\r\x00\x00\x00Other Recipes'
tRp3962
I00
S'http://www.web2py.com/book/default/chapter/14'
p3963
tp3964
a(g3496
(S's\r\x00\x00\x00Buy this book'
tRp3965
I00
S'http://stores.lulu.com/web2py'
p3966
tp3967
aasbasbasbasbasbasbasbag69
(g85
g71
NtRp3968
(dp3969
g74
(dp3970
sg83
g3610
sg76
(lp3971
g69
(g90
g71
NtRp3972
(dp3973
g74
(dp3974
sg83
g3968
sg76
(lp3975
g69
(g70
g71
NtRp3976
(dp3977
g74
(dp3978
g82
I2
ssg83
g3972
sg76
(lp3979
g69
(g78
g71
NtRp3980
(dp3981
g74
(dp3982
g82
I1
ssg83
Nsg76
(lp3983
g69
(g85
g71
NtRp3984
(dp3985
g74
(dp3986
sg83
g3980
sg76
(lp3987
g69
(g90
g71
NtRp3988
(dp3989
g74
(dp3990
sg83
g3984
sg76
(lp3991
g69
(g70
g71
NtRp3992
(dp3993
g74
(dp3994
g82
I1
ssg83
g3988
sg76
(lp3995
g3496
(S't\t\x00\x00\x00Community'
tRp3996
asbasbasbag69
(g85
g71
NtRp3997
(dp3998
g74
(dp3999
sg83
g3980
sg76
(lp4000
g69
(g90
g71
NtRp4001
(dp4002
g74
(dp4003
sg83
g3997
sg76
(lp4004
g69
(g70
g71
NtRp4005
(dp4006
g74
(dp4007
g82
I1
ssg83
g4001
sg76
(lp4008
I00
asbasbasbag69
(g85
g71
NtRp4009
(dp4010
g74
(dp4011
sg83
g3980
sg76
(lp4012
g69
(g90
g71
NtRp4013
(dp4014
g74
(dp4015
sg83
g4009
sg76
(lp4016
g69
(g70
g71
NtRp4017
(dp4018
g74
(dp4019
g82
I1
ssg83
g4013
sg76
(lp4020
Nasbasbasbag69
(g85
g71
NtRp4021
(dp4022
g74
(dp4023
sg83
g3980
sg76
(lp4024
g69
(g90
g71
NtRp4025
(dp4026
g74
(dp4027
sg83
g4021
sg76
(lp4028
g69
(g70
g71
NtRp4029
(dp4030
g74
(dp4031
g82
I1
ssg83
g4025
sg76
(lp4032
(lp4033
(g3496
(S't\x06\x00\x00\x00Groups'
tRp4034
I00
S'http://www.web2py.com/examples/default/usergroups'
p4035
tp4036
a(g3496
(S't\x07\x00\x00\x00Twitter'
tRp4037
I00
S'http://twitter.com/web2py'
p4038
tp4039
a(g3496
(S's\t\x00\x00\x00Live Chat'
tRp4040
I00
S'http://webchat.freenode.net/?channels=web2py'
p4041
tp4042
aasbasbasbasbasbasbasbag69
(g85
g71
NtRp4043
(dp4044
g74
(dp4045
sg83
g3610
sg76
(lp4046
g69
(g90
g71
NtRp4047
(dp4048
g74
(dp4049
sg83
g4043
sg76
(lp4050
g69
(g70
g71
NtRp4051
(dp4052
g74
(dp4053
g82
I2
ssg83
g4047
sg76
(lp4054
g69
(g78
g71
NtRp4055
(dp4056
g74
(dp4057
g82
I1
ssg83
Nsg76
(lp4058
g69
(g85
g71
NtRp4059
(dp4060
g74
(dp4061
sg83
g4055
sg76
(lp4062
g69
(g90
g71
NtRp4063
(dp4064
g74
(dp4065
sg83
g4059
sg76
(lp4066
g69
(g70
g71
NtRp4067
(dp4068
g74
(dp4069
g82
I1
ssg83
g4063
sg76
(lp4070
g3496
(S't\x07\x00\x00\x00Plugins'
tRp4071
asbasbasbag69
(g85
g71
NtRp4072
(dp4073
g74
(dp4074
sg83
g4055
sg76
(lp4075
g69
(g90
g71
NtRp4076
(dp4077
g74
(dp4078
sg83
g4072
sg76
(lp4079
g69
(g70
g71
NtRp4080
(dp4081
g74
(dp4082
g82
I1
ssg83
g4076
sg76
(lp4083
I00
asbasbasbag69
(g85
g71
NtRp4084
(dp4085
g74
(dp4086
sg83
g4055
sg76
(lp4087
g69
(g90
g71
NtRp4088
(dp4089
g74
(dp4090
sg83
g4084
sg76
(lp4091
g69
(g70
g71
NtRp4092
(dp4093
g74
(dp4094
g82
I1
ssg83
g4088
sg76
(lp4095
Nasbasbasbag69
(g85
g71
NtRp4096
(dp4097
g74
(dp4098
sg83
g4055
sg76
(lp4099
g69
(g90
g71
NtRp4100
(dp4101
g74
(dp4102
sg83
g4096
sg76
(lp4103
g69
(g70
g71
NtRp4104
(dp4105
g74
(dp4106
g82
I1
ssg83
g4100
sg76
(lp4107
(lp4108
(S'plugin_wiki'
p4109
I00
S'http://web2py.com/examples/default/download'
p4110
tp4111
a(g3496
(S's\r\x00\x00\x00Other Plugins'
tRp4112
I00
g3842
tp4113
a(g3496
(S's\x0e\x00\x00\x00Layout Plugins'
tRp4114
I00
g3845
tp4115
aasbasbasbasbasbasbasbasbasbasbasbasbasbasbasbasbasbasbasbag69
(g85
g71
NtRp4116
(dp4117
g74
(dp4118
sg83
g2940
sg76
(lp4119
g69
(g90
g71
NtRp4120
(dp4121
g74
(dp4122
g94
g95
ssg83
g4116
sg76
(lp4123
S'meta'
p4124
asbag69
(g90
g71
NtRp4125
(dp4126
g74
(dp4127
g101
g102
ssg83
g4116
sg76
(lp4128
S':'
asbag69
(g90
g71
NtRp4129
(dp4130
g74
(dp4131
sg83
g4116
sg76
(lp4132
g69
(g70
g71
NtRp4133
(dp4134
g74
(dp4135
g82
I5
ssg83
g4129
sg76
(lp4136
g69
(g78
g71
NtRp4137
(dp4138
g74
(dp4139
g82
I4
ssg83
Nsg76
(lp4140
g69
(g85
g71
NtRp4141
(dp4142
g74
(dp4143
sg83
g4137
sg76
(lp4144
g69
(g90
g71
NtRp4145
(dp4146
g74
(dp4147
g94
g95
ssg83
g4141
sg76
(lp4148
S'author'
p4149
asbag69
(g90
g71
NtRp4150
(dp4151
g74
(dp4152
g101
g102
ssg83
g4141
sg76
(lp4153
S':'
asbag69
(g90
g71
NtRp4154
(dp4155
g74
(dp4156
sg83
g4141
sg76
(lp4157
g69
(g70
g71
NtRp4158
(dp4159
g74
(dp4160
g82
I4
ssg83
g4154
sg76
(lp4161
S'Your Name <you@example.com>'
p4162
asbasbasbag69
(g85
g71
NtRp4163
(dp4164
g74
(dp4165
sg83
g4137
sg76
(lp4166
g69
(g90
g71
NtRp4167
(dp4168
g74
(dp4169
g94
g95
ssg83
g4163
sg76
(lp4170
S'copyright'
p4171
asbag69
(g90
g71
NtRp4172
(dp4173
g74
(dp4174
g101
g102
ssg83
g4163
sg76
(lp4175
S':'
asbag69
(g90
g71
NtRp4176
(dp4177
g74
(dp4178
sg83
g4163
sg76
(lp4179
g69
(g70
g71
NtRp4180
(dp4181
g74
(dp4182
g82
I4
ssg83
g4176
sg76
(lp4183
S'Copyright 2011'
p4184
asbasbasbag69
(g85
g71
NtRp4185
(dp4186
g74
(dp4187
sg83
g4137
sg76
(lp4188
g69
(g90
g71
NtRp4189
(dp4190
g74
(dp4191
g94
g95
ssg83
g4185
sg76
(lp4192
S'description'
p4193
asbag69
(g90
g71
NtRp4194
(dp4195
g74
(dp4196
g101
g102
ssg83
g4185
sg76
(lp4197
S':'
asbag69
(g90
g71
NtRp4198
(dp4199
g74
(dp4200
sg83
g4185
sg76
(lp4201
g69
(g70
g71
NtRp4202
(dp4203
g74
(dp4204
g82
I4
ssg83
g4198
sg76
(lp4205
S'a cool new app'
p4206
asbasbasbag69
(g85
g71
NtRp4207
(dp4208
g74
(dp4209
sg83
g4137
sg76
(lp4210
g69
(g90
g71
NtRp4211
(dp4212
g74
(dp4213
g94
g95
ssg83
g4207
sg76
(lp4214
S'generator'
p4215
asbag69
(g90
g71
NtRp4216
(dp4217
g74
(dp4218
g101
g102
ssg83
g4207
sg76
(lp4219
S':'
asbag69
(g90
g71
NtRp4220
(dp4221
g74
(dp4222
sg83
g4207
sg76
(lp4223
g69
(g70
g71
NtRp4224
(dp4225
g74
(dp4226
g82
I4
ssg83
g4220
sg76
(lp4227
S'Web2py Web Framework'
p4228
asbasbasbag69
(g85
g71
NtRp4229
(dp4230
g74
(dp4231
sg83
g4137
sg76
(lp4232
g69
(g90
g71
NtRp4233
(dp4234
g74
(dp4235
g94
g95
ssg83
g4229
sg76
(lp4236
S'keywords'
p4237
asbag69
(g90
g71
NtRp4238
(dp4239
g74
(dp4240
g101
g102
ssg83
g4229
sg76
(lp4241
S':'
asbag69
(g90
g71
NtRp4242
(dp4243
g74
(dp4244
sg83
g4229
sg76
(lp4245
g69
(g70
g71
NtRp4246
(dp4247
g74
(dp4248
g82
I4
ssg83
g4242
sg76
(lp4249
S'web2py, python, framework'
p4250
asbasbasbasbasbasbasbag69
(g85
g71
NtRp4251
(dp4252
g74
(dp4253
sg83
g2940
sg76
(lp4254
g69
(g90
g71
NtRp4255
(dp4256
g74
(dp4257
g94
g95
ssg83
g4251
sg76
(lp4258
S'postprocessing'
p4259
asbag69
(g90
g71
NtRp4260
(dp4261
g74
(dp4262
g101
g102
ssg83
g4251
sg76
(lp4263
S':'
asbag69
(g90
g71
NtRp4264
(dp4265
g74
(dp4266
sg83
g4251
sg76
(lp4267
g69
(g70
g71
NtRp4268
(dp4269
g74
(dp4270
g82
I5
ssg83
g4264
sg76
(lp4271
g69
(g78
g71
NtRp4272
(dp4273
g74
(dp4274
g82
I4
ssg83
Nsg76
(lp4275
sbasbasbasbag69
(g85
g71
NtRp4276
(dp4277
g74
(dp4278
sg83
g2940
sg76
(lp4279
g69
(g90
g71
NtRp4280
(dp4281
g74
(dp4282
g94
g95
ssg83
g4276
sg76
(lp4283
S'session_filename'
p4284
asbag69
(g90
g71
NtRp4285
(dp4286
g74
(dp4287
g101
g102
ssg83
g4276
sg76
(lp4288
S':'
asbag69
(g90
g71
NtRp4289
(dp4290
g74
(dp4291
sg83
g4276
sg76
(lp4292
g69
(g70
g71
NtRp4293
(dp4294
g74
(dp4295
g82
I5
ssg83
g4289
sg76
(lp4296
S'/home/rehas/web2py/applications/Aarogya/sessions/127.0.0.1-2ea9e02f-e6d5-48d9-93c5-b27cfdd993e3'
p4297
asbasbasbag69
(g85
g71
NtRp4298
(dp4299
g74
(dp4300
sg83
g2940
sg76
(lp4301
g69
(g90
g71
NtRp4302
(dp4303
g74
(dp4304
g94
g95
ssg83
g4298
sg76
(lp4305
S'session_id'
p4306
asbag69
(g90
g71
NtRp4307
(dp4308
g74
(dp4309
g101
g102
ssg83
g4298
sg76
(lp4310
S':'
asbag69
(g90
g71
NtRp4311
(dp4312
g74
(dp4313
sg83
g4298
sg76
(lp4314
g69
(g70
g71
NtRp4315
(dp4316
g74
(dp4317
g82
I5
ssg83
g4311
sg76
(lp4318
S'127.0.0.1-2ea9e02f-e6d5-48d9-93c5-b27cfdd993e3'
p4319
asbasbasbag69
(g85
g71
NtRp4320
(dp4321
g74
(dp4322
sg83
g2940
sg76
(lp4323
g69
(g90
g71
NtRp4324
(dp4325
g74
(dp4326
g94
g95
ssg83
g4320
sg76
(lp4327
S'session_id_name'
p4328
asbag69
(g90
g71
NtRp4329
(dp4330
g74
(dp4331
g101
g102
ssg83
g4320
sg76
(lp4332
S':'
asbag69
(g90
g71
NtRp4333
(dp4334
g74
(dp4335
sg83
g4320
sg76
(lp4336
g69
(g70
g71
NtRp4337
(dp4338
g74
(dp4339
g82
I5
ssg83
g4333
sg76
(lp4340
g2997
asbasbasbag69
(g85
g71
NtRp4341
(dp4342
g74
(dp4343
sg83
g2940
sg76
(lp4344
g69
(g90
g71
NtRp4345
(dp4346
g74
(dp4347
g94
g95
ssg83
g4341
sg76
(lp4348
S'session_new'
p4349
asbag69
(g90
g71
NtRp4350
(dp4351
g74
(dp4352
g101
g102
ssg83
g4341
sg76
(lp4353
S':'
asbag69
(g90
g71
NtRp4354
(dp4355
g74
(dp4356
sg83
g4341
sg76
(lp4357
g69
(g70
g71
NtRp4358
(dp4359
g74
(dp4360
g82
I5
ssg83
g4354
sg76
(lp4361
g1483
asbasbasbag69
(g85
g71
NtRp4362
(dp4363
g74
(dp4364
sg83
g2940
sg76
(lp4365
g69
(g90
g71
NtRp4366
(dp4367
g74
(dp4368
g94
g95
ssg83
g4362
sg76
(lp4369
S'status'
p4370
asbag69
(g90
g71
NtRp4371
(dp4372
g74
(dp4373
g101
g102
ssg83
g4362
sg76
(lp4374
S':'
asbag69
(g90
g71
NtRp4375
(dp4376
g74
(dp4377
sg83
g4362
sg76
(lp4378
g69
(g70
g71
NtRp4379
(dp4380
g74
(dp4381
g82
I5
ssg83
g4375
sg76
(lp4382
S'200'
p4383
asbasbasbag69
(g85
g71
NtRp4384
(dp4385
g74
(dp4386
sg83
g2940
sg76
(lp4387
g69
(g90
g71
NtRp4388
(dp4389
g74
(dp4390
g94
g95
ssg83
g4384
sg76
(lp4391
S'subtitle'
p4392
asbag69
(g90
g71
NtRp4393
(dp4394
g74
(dp4395
g101
g102
ssg83
g4384
sg76
(lp4396
S':'
asbag69
(g90
g71
NtRp4397
(dp4398
g74
(dp4399
sg83
g4384
sg76
(lp4400
g69
(g70
g71
NtRp4401
(dp4402
g74
(dp4403
g82
I5
ssg83
g4397
sg76
(lp4404
g3496
(S's\r\x00\x00\x00customize me!'
tRp4405
asbasbasbag69
(g85
g71
NtRp4406
(dp4407
g74
(dp4408
sg83
g2940
sg76
(lp4409
g69
(g90
g71
NtRp4410
(dp4411
g74
(dp4412
g94
g95
ssg83
g4406
sg76
(lp4413
S'title'
p4414
asbag69
(g90
g71
NtRp4415
(dp4416
g74
(dp4417
g101
g102
ssg83
g4406
sg76
(lp4418
S':'
asbag69
(g90
g71
NtRp4419
(dp4420
g74
(dp4421
sg83
g4406
sg76
(lp4422
g69
(g70
g71
NtRp4423
(dp4424
g74
(dp4425
g82
I5
ssg83
g4419
sg76
(lp4426
S'Aarogya'
p4427
asbasbasbag69
(g85
g71
NtRp4428
(dp4429
g74
(dp4430
sg83
g2940
sg76
(lp4431
g69
(g90
g71
NtRp4432
(dp4433
g74
(dp4434
g94
g95
ssg83
g4428
sg76
(lp4435
g2147
asbag69
(g90
g71
NtRp4436
(dp4437
g74
(dp4438
g101
g102
ssg83
g4428
sg76
(lp4439
S':'
asbag69
(g90
g71
NtRp4440
(dp4441
g74
(dp4442
sg83
g4428
sg76
(lp4443
g69
(g70
g71
NtRp4444
(dp4445
g74
(dp4446
g82
I5
ssg83
g4440
sg76
(lp4447
g2160
asbasbasbag69
(g85
g71
NtRp4448
(dp4449
g74
(dp4450
sg83
g2940
sg76
(lp4451
g69
(g90
g71
NtRp4452
(dp4453
g74
(dp4454
g94
g95
ssg83
g4448
sg76
(lp4455
S'view'
p4456
asbag69
(g90
g71
NtRp4457
(dp4458
g74
(dp4459
g101
g102
ssg83
g4448
sg76
(lp4460
S':'
asbag69
(g90
g71
NtRp4461
(dp4462
g74
(dp4463
sg83
g4448
sg76
(lp4464
g69
(g70
g71
NtRp4465
(dp4466
g74
(dp4467
g82
I5
ssg83
g4461
sg76
(lp4468
S'default/signin.html'
p4469
asbasbasbasbasbsS'locals'
p4470
(dp4471
S'attr'
p4472
S"{'_class': 'generic-widget', '_id': 'no_table_sex', '_name': 'sex', 'requires': [<gluon.validators.IS_NOT_EMPTY object>, <gluon.validators.IS_IN_SET object>]}"
p4473
sS'value'
p4474
S'None'
p4475
sS'field'
p4476
S'<gluon.dal.Field object>'
p4477
sg74
g21
sS'requires'
p4478
S'[<gluon.validators.IS_NOT_EMPTY object>, <gluon.validators.IS_IN_SET object>]'
p4479
sS'cls'
p4480
S"<class 'gluon.sqlhtml.RadioWidget'>"
p4481
sssS'traceback'
p4482
S'Traceback (most recent call last):\n  File "/usr/lib/pymodules/python2.7/gluon/restricted.py", line 205, in restricted\n    exec ccode in environment\n  File "/home/rehas/web2py/applications/Aarogya/controllers/default.py", line 99, in <module>\n  File "/usr/lib/pymodules/python2.7/gluon/globals.py", line 173, in <lambda>\n    self._caller = lambda f: f()\n  File "/home/rehas/web2py/applications/Aarogya/controllers/default.py", line 91, in signin\n    Field(\'password\', \'password\', length=512, readable=False, label=\'Password\')\n  File "/usr/lib/pymodules/python2.7/gluon/sqlhtml.py", line 1297, in factory\n    **attributes)\n  File "/usr/lib/pymodules/python2.7/gluon/sqlhtml.py", line 859, in __init__\n    inp = field.widget(field, default)\n  File "/usr/lib/pymodules/python2.7/gluon/sqlhtml.py", line 307, in widget\n    % field\nSyntaxError: widget cannot determine options of no_table.sex\n'
p4483
s.