(dp1
S'output'
p2
S"<class 'sqlite3.IntegrityError'> UNIQUE constraint failed: patient.email"
p3
sS'layer'
p4
S'/home/rehas/web2py/applications/Aarogya/controllers/default.py'
p5
sS'code'
p6
S'# -*- coding: utf-8 -*-\n# this file is released under public domain and you can use without limitations\n\n#########################################################################\n## This is a samples controller\n## - index is the default action of any application\n## - user is required for authentication and authorization\n## - download is for downloading files uploaded in the db (does streaming)\n## - call exposes all registered services (none by default)\n#########################################################################\n\ndef index():\n    """\n    example action using the internationalization operator T and flash\n    rendered by views/default/index.html or views/generic.html\n    """\n    response.flash = "Welcome to web2py!"\n    return dict(message=T(\'Hello World\'))\n\ndef user():\n    """\n    exposes:\n    http://..../[app]/default/user/login\n    http://..../[app]/default/user/logout\n    http://..../[app]/default/user/register\n    http://..../[app]/default/user/profile\n    http://..../[app]/default/user/retrieve_password\n    http://..../[app]/default/user/change_password\n    use @auth.requires_login()\n        @auth.requires_membership(\'group name\')\n        @auth.requires_permission(\'read\',\'table name\',record_id)\n    to decorate functions that need access control\n    """\n    return dict(form=auth())\n\n\ndef download():\n    """\n    allows downloading of uploaded files\n    http://..../[app]/default/download/[filename]\n    """\n    return response.download(request,db)\n\n\ndef call():\n    """\n    exposes services. for example:\n    http://..../[app]/default/call/jsonrpc\n    decorate with @services.jsonrpc the functions to expose\n    supports xml, json, xmlrpc, jsonrpc, amfrpc, rss, csv\n    """\n    return service()\n\n\n@auth.requires_signature()\ndef data():\n    """\n    http://..../[app]/default/data/tables\n    http://..../[app]/default/data/create/[table]\n    http://..../[app]/default/data/read/[table]/[id]\n    http://..../[app]/default/data/update/[table]/[id]\n    http://..../[app]/default/data/delete/[table]/[id]\n    http://..../[app]/default/data/select/[table]\n    http://..../[app]/default/data/search/[table]\n    but URLs must be signed, i.e. linked with\n      A(\'table\',_href=URL(\'data/tables\',user_signature=True))\n    or with the signed load operator\n      LOAD(\'default\',\'data.load\',args=\'tables\',ajax=True,user_signature=True)\n    """\n    return dict(form=crud())\ndef signin():\n    form=SQLFORM.factory(\n    Field(\'first_name\', length=128,requires=IS_NOT_EMPTY()),\n \n    Field(\'last_name\', length=128, requires=IS_NOT_EMPTY()),\n \n    Field(\'dob\',\'date\', requires=IS_NOT_EMPTY()),\n \n    Field(\'sex\', requires=IS_IN_SET((\'F\',\'M\')), widget=SQLFORM.widgets.radio.widget),\n \n    Field(\'email\', length=128, unique=True,requires=IS_EMAIL()),\n    \n    Field(\'phone\', \'string\',length=10,requires=IS_NOT_EMPTY()),\n    \n    Field(\'bloodgroup\',requires=IS_IN_SET((\'O+\',\'O-\',\'A+\',\'A-\',\'B+\',\'B-\',\'AB+\',\'AB-\')),widget=SQLFORM.widgets.radio.widget),\n    \n    Field(\'allergies\', \'text\',length=10,requires=IS_NOT_EMPTY()),\n    \n    Field(\'address\', length=256, default=\'\'),\n \n    Field(\'password\', \'password\', length=512, readable=False, label=\'Password\')\n    )\n    if form.process().accepted:\n        db.patient.insert(**db.patient._filter_fields(form.vars))\n        response.flash=\'accepted!\'\n        \n    elif form.errors:\n        response.flash=\'errors\'\n    return dict(form=form)\n\nresponse._vars=response._caller(signin)\n'
p7
sS'snapshot'
p8
(dp9
S'exception'
p10
(dp11
S'__module__'
p12
S"'sqlite3'"
p13
sS'__getslice__'
p14
S"<method-wrapper '__getslice__' of IntegrityError object>"
p15
sS'__str__'
p16
S"<method-wrapper '__str__' of IntegrityError object>"
p17
sS'__reduce__'
p18
S'<built-in method __reduce__ of IntegrityError object>'
p19
sS'__dict__'
p20
S'{}'
p21
sS'__sizeof__'
p22
S'<built-in method __sizeof__ of IntegrityError object>'
p23
sS'__weakref__'
p24
S'None'
p25
sS'__init__'
p26
S"<method-wrapper '__init__' of IntegrityError object>"
p27
sS'__setattr__'
p28
S"<method-wrapper '__setattr__' of IntegrityError object>"
p29
sS'__reduce_ex__'
p30
S'<built-in method __reduce_ex__ of IntegrityError object>'
p31
sS'__new__'
p32
S'<built-in method __new__ of type object>'
p33
sS'__format__'
p34
S'<built-in method __format__ of IntegrityError object>'
p35
sS'__class__'
p36
S"<class 'sqlite3.IntegrityError'>"
p37
sS'__doc__'
p38
S'None'
p39
sS'__getitem__'
p40
S"<method-wrapper '__getitem__' of IntegrityError object>"
p41
sS'__setstate__'
p42
S'<built-in method __setstate__ of IntegrityError object>'
p43
sS'__getattribute__'
p44
S"<method-wrapper '__getattribute__' of IntegrityError object>"
p45
sS'args'
p46
S"('UNIQUE constraint failed: patient.email',)"
p47
sS'__subclasshook__'
p48
S'<built-in method __subclasshook__ of type object>'
p49
sS'__unicode__'
p50
S'<built-in method __unicode__ of IntegrityError object>'
p51
sS'__delattr__'
p52
S"<method-wrapper '__delattr__' of IntegrityError object>"
p53
sS'__repr__'
p54
S"<method-wrapper '__repr__' of IntegrityError object>"
p55
sS'__hash__'
p56
S"<method-wrapper '__hash__' of IntegrityError object>"
p57
ssS'evalue'
p58
S'UNIQUE constraint failed: patient.email'
p59
sS'request'
p60
ccopy_reg
_reconstructor
p61
(cgluon.html
BEAUTIFY
p62
c__builtin__
object
p63
NtRp64
(dp65
S'attributes'
p66
(dp67
sS'components'
p68
(lp69
g61
(cgluon.html
TABLE
p70
g63
NtRp71
(dp72
g66
(dp73
S'level'
p74
I5
ssS'parent'
p75
Nsg68
(lp76
g61
(cgluon.html
TR
p77
g63
NtRp78
(dp79
g66
(dp80
sg75
g71
sg68
(lp81
g61
(cgluon.html
TD
p82
g63
NtRp83
(dp84
g66
(dp85
S'_style'
p86
S'font-weight:bold;vertical-align:top'
p87
ssg75
g78
sg68
(lp88
S'ajax'
p89
asbag61
(g82
g63
NtRp90
(dp91
g66
(dp92
S'_valign'
p93
S'top'
p94
ssg75
g78
sg68
(lp95
S':'
asbag61
(g82
g63
NtRp96
(dp97
g66
(dp98
sg75
g78
sg68
(lp99
g61
(g62
g63
NtRp100
(dp101
g66
(dp102
g74
I5
ssg75
g96
sg68
(lp103
S'False'
p104
asbasbasbag61
(g77
g63
NtRp105
(dp106
g66
(dp107
sg75
g71
sg68
(lp108
g61
(g82
g63
NtRp109
(dp110
g66
(dp111
g86
g87
ssg75
g105
sg68
(lp112
S'application'
p113
asbag61
(g82
g63
NtRp114
(dp115
g66
(dp116
g93
g94
ssg75
g105
sg68
(lp117
S':'
asbag61
(g82
g63
NtRp118
(dp119
g66
(dp120
sg75
g105
sg68
(lp121
g61
(g62
g63
NtRp122
(dp123
g66
(dp124
g74
I5
ssg75
g118
sg68
(lp125
S'Aarogya'
p126
asbasbasbag61
(g77
g63
NtRp127
(dp128
g66
(dp129
sg75
g71
sg68
(lp130
g61
(g82
g63
NtRp131
(dp132
g66
(dp133
g86
g87
ssg75
g127
sg68
(lp134
g46
asbag61
(g82
g63
NtRp135
(dp136
g66
(dp137
g93
g94
ssg75
g127
sg68
(lp138
S':'
asbag61
(g82
g63
NtRp139
(dp140
g66
(dp141
sg75
g127
sg68
(lp142
g61
(g62
g63
NtRp143
(dp144
g66
(dp145
g74
I5
ssg75
g139
sg68
(lp146
g61
(g70
g63
NtRp147
(dp148
g66
(dp149
g74
I4
ssg75
Nsg68
(lp150
sbasbasbasbag61
(g77
g63
NtRp151
(dp152
g66
(dp153
sg75
g71
sg68
(lp154
g61
(g82
g63
NtRp155
(dp156
g66
(dp157
g86
g87
ssg75
g151
sg68
(lp158
S'body'
p159
asbag61
(g82
g63
NtRp160
(dp161
g66
(dp162
g93
g94
ssg75
g151
sg68
(lp163
S':'
asbag61
(g82
g63
NtRp164
(dp165
g66
(dp166
sg75
g151
sg68
(lp167
g61
(g62
g63
NtRp168
(dp169
g66
(dp170
g74
I5
ssg75
g164
sg68
(lp171
S"<open file '<fdopen>', mode 'w+b' at 0x7f8133bf14b0>"
p172
asbasbasbag61
(g77
g63
NtRp173
(dp174
g66
(dp175
sg75
g71
sg68
(lp176
g61
(g82
g63
NtRp177
(dp178
g66
(dp179
g86
g87
ssg75
g173
sg68
(lp180
S'client'
p181
asbag61
(g82
g63
NtRp182
(dp183
g66
(dp184
g93
g94
ssg75
g173
sg68
(lp185
S':'
asbag61
(g82
g63
NtRp186
(dp187
g66
(dp188
sg75
g173
sg68
(lp189
g61
(g62
g63
NtRp190
(dp191
g66
(dp192
g74
I5
ssg75
g186
sg68
(lp193
S'127.0.0.1'
p194
asbasbasbag61
(g77
g63
NtRp195
(dp196
g66
(dp197
sg75
g71
sg68
(lp198
g61
(g82
g63
NtRp199
(dp200
g66
(dp201
g86
g87
ssg75
g195
sg68
(lp202
S'controller'
p203
asbag61
(g82
g63
NtRp204
(dp205
g66
(dp206
g93
g94
ssg75
g195
sg68
(lp207
S':'
asbag61
(g82
g63
NtRp208
(dp209
g66
(dp210
sg75
g195
sg68
(lp211
g61
(g62
g63
NtRp212
(dp213
g66
(dp214
g74
I5
ssg75
g208
sg68
(lp215
S'default'
p216
asbasbasbag61
(g77
g63
NtRp217
(dp218
g66
(dp219
sg75
g71
sg68
(lp220
g61
(g82
g63
NtRp221
(dp222
g66
(dp223
g86
g87
ssg75
g217
sg68
(lp224
S'cookies'
p225
asbag61
(g82
g63
NtRp226
(dp227
g66
(dp228
g93
g94
ssg75
g217
sg68
(lp229
S':'
asbag61
(g82
g63
NtRp230
(dp231
g66
(dp232
sg75
g217
sg68
(lp233
g61
(g62
g63
NtRp234
(dp235
g66
(dp236
g74
I5
ssg75
g230
sg68
(lp237
g61
(g70
g63
NtRp238
(dp239
g66
(dp240
g74
I4
ssg75
Nsg68
(lp241
g61
(g77
g63
NtRp242
(dp243
g66
(dp244
sg75
g238
sg68
(lp245
g61
(g82
g63
NtRp246
(dp247
g66
(dp248
g86
g87
ssg75
g242
sg68
(lp249
S'session_id_aarogya'
p250
asbag61
(g82
g63
NtRp251
(dp252
g66
(dp253
g93
g94
ssg75
g242
sg68
(lp254
S':'
asbag61
(g82
g63
NtRp255
(dp256
g66
(dp257
sg75
g242
sg68
(lp258
g61
(g62
g63
NtRp259
(dp260
g66
(dp261
g74
I4
ssg75
g255
sg68
(lp262
g61
(g70
g63
NtRp263
(dp264
g66
(dp265
g74
I3
ssg75
Nsg68
(lp266
g61
(g77
g63
NtRp267
(dp268
g66
(dp269
sg75
g263
sg68
(lp270
g61
(g82
g63
NtRp271
(dp272
g66
(dp273
g86
g87
ssg75
g267
sg68
(lp274
S'comment'
p275
asbag61
(g82
g63
NtRp276
(dp277
g66
(dp278
g93
g94
ssg75
g267
sg68
(lp279
S':'
asbag61
(g82
g63
NtRp280
(dp281
g66
(dp282
sg75
g267
sg68
(lp283
g61
(g62
g63
NtRp284
(dp285
g66
(dp286
g74
I3
ssg75
g280
sg68
(lp287
S''
asbasbasbag61
(g77
g63
NtRp288
(dp289
g66
(dp290
sg75
g263
sg68
(lp291
g61
(g82
g63
NtRp292
(dp293
g66
(dp294
g86
g87
ssg75
g288
sg68
(lp295
S'domain'
p296
asbag61
(g82
g63
NtRp297
(dp298
g66
(dp299
g93
g94
ssg75
g288
sg68
(lp300
S':'
asbag61
(g82
g63
NtRp301
(dp302
g66
(dp303
sg75
g288
sg68
(lp304
g61
(g62
g63
NtRp305
(dp306
g66
(dp307
g74
I3
ssg75
g301
sg68
(lp308
S''
asbasbasbag61
(g77
g63
NtRp309
(dp310
g66
(dp311
sg75
g263
sg68
(lp312
g61
(g82
g63
NtRp313
(dp314
g66
(dp315
g86
g87
ssg75
g309
sg68
(lp316
S'expires'
p317
asbag61
(g82
g63
NtRp318
(dp319
g66
(dp320
g93
g94
ssg75
g309
sg68
(lp321
S':'
asbag61
(g82
g63
NtRp322
(dp323
g66
(dp324
sg75
g309
sg68
(lp325
g61
(g62
g63
NtRp326
(dp327
g66
(dp328
g74
I3
ssg75
g322
sg68
(lp329
S''
asbasbasbag61
(g77
g63
NtRp330
(dp331
g66
(dp332
sg75
g263
sg68
(lp333
g61
(g82
g63
NtRp334
(dp335
g66
(dp336
g86
g87
ssg75
g330
sg68
(lp337
S'httponly'
p338
asbag61
(g82
g63
NtRp339
(dp340
g66
(dp341
g93
g94
ssg75
g330
sg68
(lp342
S':'
asbag61
(g82
g63
NtRp343
(dp344
g66
(dp345
sg75
g330
sg68
(lp346
g61
(g62
g63
NtRp347
(dp348
g66
(dp349
g74
I3
ssg75
g343
sg68
(lp350
S''
asbasbasbag61
(g77
g63
NtRp351
(dp352
g66
(dp353
sg75
g263
sg68
(lp354
g61
(g82
g63
NtRp355
(dp356
g66
(dp357
g86
g87
ssg75
g351
sg68
(lp358
S'max-age'
p359
asbag61
(g82
g63
NtRp360
(dp361
g66
(dp362
g93
g94
ssg75
g351
sg68
(lp363
S':'
asbag61
(g82
g63
NtRp364
(dp365
g66
(dp366
sg75
g351
sg68
(lp367
g61
(g62
g63
NtRp368
(dp369
g66
(dp370
g74
I3
ssg75
g364
sg68
(lp371
S''
asbasbasbag61
(g77
g63
NtRp372
(dp373
g66
(dp374
sg75
g263
sg68
(lp375
g61
(g82
g63
NtRp376
(dp377
g66
(dp378
g86
g87
ssg75
g372
sg68
(lp379
S'path'
p380
asbag61
(g82
g63
NtRp381
(dp382
g66
(dp383
g93
g94
ssg75
g372
sg68
(lp384
S':'
asbag61
(g82
g63
NtRp385
(dp386
g66
(dp387
sg75
g372
sg68
(lp388
g61
(g62
g63
NtRp389
(dp390
g66
(dp391
g74
I3
ssg75
g385
sg68
(lp392
S''
asbasbasbag61
(g77
g63
NtRp393
(dp394
g66
(dp395
sg75
g263
sg68
(lp396
g61
(g82
g63
NtRp397
(dp398
g66
(dp399
g86
g87
ssg75
g393
sg68
(lp400
S'secure'
p401
asbag61
(g82
g63
NtRp402
(dp403
g66
(dp404
g93
g94
ssg75
g393
sg68
(lp405
S':'
asbag61
(g82
g63
NtRp406
(dp407
g66
(dp408
sg75
g393
sg68
(lp409
g61
(g62
g63
NtRp410
(dp411
g66
(dp412
g74
I3
ssg75
g406
sg68
(lp413
S''
asbasbasbag61
(g77
g63
NtRp414
(dp415
g66
(dp416
sg75
g263
sg68
(lp417
g61
(g82
g63
NtRp418
(dp419
g66
(dp420
g86
g87
ssg75
g414
sg68
(lp421
S'version'
p422
asbag61
(g82
g63
NtRp423
(dp424
g66
(dp425
g93
g94
ssg75
g414
sg68
(lp426
S':'
asbag61
(g82
g63
NtRp427
(dp428
g66
(dp429
sg75
g414
sg68
(lp430
g61
(g62
g63
NtRp431
(dp432
g66
(dp433
g74
I3
ssg75
g427
sg68
(lp434
S''
asbasbasbasbasbasbasbag61
(g77
g63
NtRp435
(dp436
g66
(dp437
sg75
g238
sg68
(lp438
g61
(g82
g63
NtRp439
(dp440
g66
(dp441
g86
g87
ssg75
g435
sg68
(lp442
S'session_id_admin'
p443
asbag61
(g82
g63
NtRp444
(dp445
g66
(dp446
g93
g94
ssg75
g435
sg68
(lp447
S':'
asbag61
(g82
g63
NtRp448
(dp449
g66
(dp450
sg75
g435
sg68
(lp451
g61
(g62
g63
NtRp452
(dp453
g66
(dp454
g74
I4
ssg75
g448
sg68
(lp455
g61
(g70
g63
NtRp456
(dp457
g66
(dp458
g74
I3
ssg75
Nsg68
(lp459
g61
(g77
g63
NtRp460
(dp461
g66
(dp462
sg75
g456
sg68
(lp463
g61
(g82
g63
NtRp464
(dp465
g66
(dp466
g86
g87
ssg75
g460
sg68
(lp467
g275
asbag61
(g82
g63
NtRp468
(dp469
g66
(dp470
g93
g94
ssg75
g460
sg68
(lp471
S':'
asbag61
(g82
g63
NtRp472
(dp473
g66
(dp474
sg75
g460
sg68
(lp475
g61
(g62
g63
NtRp476
(dp477
g66
(dp478
g74
I3
ssg75
g472
sg68
(lp479
S''
asbasbasbag61
(g77
g63
NtRp480
(dp481
g66
(dp482
sg75
g456
sg68
(lp483
g61
(g82
g63
NtRp484
(dp485
g66
(dp486
g86
g87
ssg75
g480
sg68
(lp487
g296
asbag61
(g82
g63
NtRp488
(dp489
g66
(dp490
g93
g94
ssg75
g480
sg68
(lp491
S':'
asbag61
(g82
g63
NtRp492
(dp493
g66
(dp494
sg75
g480
sg68
(lp495
g61
(g62
g63
NtRp496
(dp497
g66
(dp498
g74
I3
ssg75
g492
sg68
(lp499
S''
asbasbasbag61
(g77
g63
NtRp500
(dp501
g66
(dp502
sg75
g456
sg68
(lp503
g61
(g82
g63
NtRp504
(dp505
g66
(dp506
g86
g87
ssg75
g500
sg68
(lp507
g317
asbag61
(g82
g63
NtRp508
(dp509
g66
(dp510
g93
g94
ssg75
g500
sg68
(lp511
S':'
asbag61
(g82
g63
NtRp512
(dp513
g66
(dp514
sg75
g500
sg68
(lp515
g61
(g62
g63
NtRp516
(dp517
g66
(dp518
g74
I3
ssg75
g512
sg68
(lp519
S''
asbasbasbag61
(g77
g63
NtRp520
(dp521
g66
(dp522
sg75
g456
sg68
(lp523
g61
(g82
g63
NtRp524
(dp525
g66
(dp526
g86
g87
ssg75
g520
sg68
(lp527
g338
asbag61
(g82
g63
NtRp528
(dp529
g66
(dp530
g93
g94
ssg75
g520
sg68
(lp531
S':'
asbag61
(g82
g63
NtRp532
(dp533
g66
(dp534
sg75
g520
sg68
(lp535
g61
(g62
g63
NtRp536
(dp537
g66
(dp538
g74
I3
ssg75
g532
sg68
(lp539
S''
asbasbasbag61
(g77
g63
NtRp540
(dp541
g66
(dp542
sg75
g456
sg68
(lp543
g61
(g82
g63
NtRp544
(dp545
g66
(dp546
g86
g87
ssg75
g540
sg68
(lp547
g359
asbag61
(g82
g63
NtRp548
(dp549
g66
(dp550
g93
g94
ssg75
g540
sg68
(lp551
S':'
asbag61
(g82
g63
NtRp552
(dp553
g66
(dp554
sg75
g540
sg68
(lp555
g61
(g62
g63
NtRp556
(dp557
g66
(dp558
g74
I3
ssg75
g552
sg68
(lp559
S''
asbasbasbag61
(g77
g63
NtRp560
(dp561
g66
(dp562
sg75
g456
sg68
(lp563
g61
(g82
g63
NtRp564
(dp565
g66
(dp566
g86
g87
ssg75
g560
sg68
(lp567
g380
asbag61
(g82
g63
NtRp568
(dp569
g66
(dp570
g93
g94
ssg75
g560
sg68
(lp571
S':'
asbag61
(g82
g63
NtRp572
(dp573
g66
(dp574
sg75
g560
sg68
(lp575
g61
(g62
g63
NtRp576
(dp577
g66
(dp578
g74
I3
ssg75
g572
sg68
(lp579
S''
asbasbasbag61
(g77
g63
NtRp580
(dp581
g66
(dp582
sg75
g456
sg68
(lp583
g61
(g82
g63
NtRp584
(dp585
g66
(dp586
g86
g87
ssg75
g580
sg68
(lp587
g401
asbag61
(g82
g63
NtRp588
(dp589
g66
(dp590
g93
g94
ssg75
g580
sg68
(lp591
S':'
asbag61
(g82
g63
NtRp592
(dp593
g66
(dp594
sg75
g580
sg68
(lp595
g61
(g62
g63
NtRp596
(dp597
g66
(dp598
g74
I3
ssg75
g592
sg68
(lp599
S''
asbasbasbag61
(g77
g63
NtRp600
(dp601
g66
(dp602
sg75
g456
sg68
(lp603
g61
(g82
g63
NtRp604
(dp605
g66
(dp606
g86
g87
ssg75
g600
sg68
(lp607
g422
asbag61
(g82
g63
NtRp608
(dp609
g66
(dp610
g93
g94
ssg75
g600
sg68
(lp611
S':'
asbag61
(g82
g63
NtRp612
(dp613
g66
(dp614
sg75
g600
sg68
(lp615
g61
(g62
g63
NtRp616
(dp617
g66
(dp618
g74
I3
ssg75
g612
sg68
(lp619
S''
asbasbasbasbasbasbasbag61
(g77
g63
NtRp620
(dp621
g66
(dp622
sg75
g238
sg68
(lp623
g61
(g82
g63
NtRp624
(dp625
g66
(dp626
g86
g87
ssg75
g620
sg68
(lp627
S'session_id_welcome'
p628
asbag61
(g82
g63
NtRp629
(dp630
g66
(dp631
g93
g94
ssg75
g620
sg68
(lp632
S':'
asbag61
(g82
g63
NtRp633
(dp634
g66
(dp635
sg75
g620
sg68
(lp636
g61
(g62
g63
NtRp637
(dp638
g66
(dp639
g74
I4
ssg75
g633
sg68
(lp640
g61
(g70
g63
NtRp641
(dp642
g66
(dp643
g74
I3
ssg75
Nsg68
(lp644
g61
(g77
g63
NtRp645
(dp646
g66
(dp647
sg75
g641
sg68
(lp648
g61
(g82
g63
NtRp649
(dp650
g66
(dp651
g86
g87
ssg75
g645
sg68
(lp652
g275
asbag61
(g82
g63
NtRp653
(dp654
g66
(dp655
g93
g94
ssg75
g645
sg68
(lp656
S':'
asbag61
(g82
g63
NtRp657
(dp658
g66
(dp659
sg75
g645
sg68
(lp660
g61
(g62
g63
NtRp661
(dp662
g66
(dp663
g74
I3
ssg75
g657
sg68
(lp664
S''
asbasbasbag61
(g77
g63
NtRp665
(dp666
g66
(dp667
sg75
g641
sg68
(lp668
g61
(g82
g63
NtRp669
(dp670
g66
(dp671
g86
g87
ssg75
g665
sg68
(lp672
g296
asbag61
(g82
g63
NtRp673
(dp674
g66
(dp675
g93
g94
ssg75
g665
sg68
(lp676
S':'
asbag61
(g82
g63
NtRp677
(dp678
g66
(dp679
sg75
g665
sg68
(lp680
g61
(g62
g63
NtRp681
(dp682
g66
(dp683
g74
I3
ssg75
g677
sg68
(lp684
S''
asbasbasbag61
(g77
g63
NtRp685
(dp686
g66
(dp687
sg75
g641
sg68
(lp688
g61
(g82
g63
NtRp689
(dp690
g66
(dp691
g86
g87
ssg75
g685
sg68
(lp692
g317
asbag61
(g82
g63
NtRp693
(dp694
g66
(dp695
g93
g94
ssg75
g685
sg68
(lp696
S':'
asbag61
(g82
g63
NtRp697
(dp698
g66
(dp699
sg75
g685
sg68
(lp700
g61
(g62
g63
NtRp701
(dp702
g66
(dp703
g74
I3
ssg75
g697
sg68
(lp704
S''
asbasbasbag61
(g77
g63
NtRp705
(dp706
g66
(dp707
sg75
g641
sg68
(lp708
g61
(g82
g63
NtRp709
(dp710
g66
(dp711
g86
g87
ssg75
g705
sg68
(lp712
g338
asbag61
(g82
g63
NtRp713
(dp714
g66
(dp715
g93
g94
ssg75
g705
sg68
(lp716
S':'
asbag61
(g82
g63
NtRp717
(dp718
g66
(dp719
sg75
g705
sg68
(lp720
g61
(g62
g63
NtRp721
(dp722
g66
(dp723
g74
I3
ssg75
g717
sg68
(lp724
S''
asbasbasbag61
(g77
g63
NtRp725
(dp726
g66
(dp727
sg75
g641
sg68
(lp728
g61
(g82
g63
NtRp729
(dp730
g66
(dp731
g86
g87
ssg75
g725
sg68
(lp732
g359
asbag61
(g82
g63
NtRp733
(dp734
g66
(dp735
g93
g94
ssg75
g725
sg68
(lp736
S':'
asbag61
(g82
g63
NtRp737
(dp738
g66
(dp739
sg75
g725
sg68
(lp740
g61
(g62
g63
NtRp741
(dp742
g66
(dp743
g74
I3
ssg75
g737
sg68
(lp744
S''
asbasbasbag61
(g77
g63
NtRp745
(dp746
g66
(dp747
sg75
g641
sg68
(lp748
g61
(g82
g63
NtRp749
(dp750
g66
(dp751
g86
g87
ssg75
g745
sg68
(lp752
g380
asbag61
(g82
g63
NtRp753
(dp754
g66
(dp755
g93
g94
ssg75
g745
sg68
(lp756
S':'
asbag61
(g82
g63
NtRp757
(dp758
g66
(dp759
sg75
g745
sg68
(lp760
g61
(g62
g63
NtRp761
(dp762
g66
(dp763
g74
I3
ssg75
g757
sg68
(lp764
S''
asbasbasbag61
(g77
g63
NtRp765
(dp766
g66
(dp767
sg75
g641
sg68
(lp768
g61
(g82
g63
NtRp769
(dp770
g66
(dp771
g86
g87
ssg75
g765
sg68
(lp772
g401
asbag61
(g82
g63
NtRp773
(dp774
g66
(dp775
g93
g94
ssg75
g765
sg68
(lp776
S':'
asbag61
(g82
g63
NtRp777
(dp778
g66
(dp779
sg75
g765
sg68
(lp780
g61
(g62
g63
NtRp781
(dp782
g66
(dp783
g74
I3
ssg75
g777
sg68
(lp784
S''
asbasbasbag61
(g77
g63
NtRp785
(dp786
g66
(dp787
sg75
g641
sg68
(lp788
g61
(g82
g63
NtRp789
(dp790
g66
(dp791
g86
g87
ssg75
g785
sg68
(lp792
g422
asbag61
(g82
g63
NtRp793
(dp794
g66
(dp795
g93
g94
ssg75
g785
sg68
(lp796
S':'
asbag61
(g82
g63
NtRp797
(dp798
g66
(dp799
sg75
g785
sg68
(lp800
g61
(g62
g63
NtRp801
(dp802
g66
(dp803
g74
I3
ssg75
g797
sg68
(lp804
S''
asbasbasbasbasbasbasbasbasbasbasbag61
(g77
g63
NtRp805
(dp806
g66
(dp807
sg75
g71
sg68
(lp808
g61
(g82
g63
NtRp809
(dp810
g66
(dp811
g86
g87
ssg75
g805
sg68
(lp812
S'env'
p813
asbag61
(g82
g63
NtRp814
(dp815
g66
(dp816
g93
g94
ssg75
g805
sg68
(lp817
S':'
asbag61
(g82
g63
NtRp818
(dp819
g66
(dp820
sg75
g805
sg68
(lp821
g61
(g62
g63
NtRp822
(dp823
g66
(dp824
g74
I5
ssg75
g818
sg68
(lp825
g61
(g70
g63
NtRp826
(dp827
g66
(dp828
g74
I4
ssg75
Nsg68
(lp829
g61
(g77
g63
NtRp830
(dp831
g66
(dp832
sg75
g826
sg68
(lp833
g61
(g82
g63
NtRp834
(dp835
g66
(dp836
g86
g87
ssg75
g830
sg68
(lp837
S'app_folders'
p838
asbag61
(g82
g63
NtRp839
(dp840
g66
(dp841
g93
g94
ssg75
g830
sg68
(lp842
S':'
asbag61
(g82
g63
NtRp843
(dp844
g66
(dp845
sg75
g830
sg68
(lp846
g61
(g62
g63
NtRp847
(dp848
g66
(dp849
g74
I4
ssg75
g843
sg68
(lp850
S"set(['/home/rehas/web2py/applications/Aarogya/', '/home/rehas/web2py/applications/admin/', '/home/rehas/web2py/applications/welcome/'])"
p851
asbasbasbag61
(g77
g63
NtRp852
(dp853
g66
(dp854
sg75
g826
sg68
(lp855
g61
(g82
g63
NtRp856
(dp857
g66
(dp858
g86
g87
ssg75
g852
sg68
(lp859
S'applications_parent'
p860
asbag61
(g82
g63
NtRp861
(dp862
g66
(dp863
g93
g94
ssg75
g852
sg68
(lp864
S':'
asbag61
(g82
g63
NtRp865
(dp866
g66
(dp867
sg75
g852
sg68
(lp868
g61
(g62
g63
NtRp869
(dp870
g66
(dp871
g74
I4
ssg75
g865
sg68
(lp872
S'/home/rehas/web2py'
p873
asbasbasbag61
(g77
g63
NtRp874
(dp875
g66
(dp876
sg75
g826
sg68
(lp877
g61
(g82
g63
NtRp878
(dp879
g66
(dp880
g86
g87
ssg75
g874
sg68
(lp881
S'cmd_args'
p882
asbag61
(g82
g63
NtRp883
(dp884
g66
(dp885
g93
g94
ssg75
g874
sg68
(lp886
S':'
asbag61
(g82
g63
NtRp887
(dp888
g66
(dp889
sg75
g874
sg68
(lp890
g61
(g62
g63
NtRp891
(dp892
g66
(dp893
g74
I4
ssg75
g887
sg68
(lp894
g61
(g70
g63
NtRp895
(dp896
g66
(dp897
g74
I3
ssg75
Nsg68
(lp898
sbasbasbasbag61
(g77
g63
NtRp899
(dp900
g66
(dp901
sg75
g826
sg68
(lp902
g61
(g82
g63
NtRp903
(dp904
g66
(dp905
g86
g87
ssg75
g899
sg68
(lp906
S'cmd_options'
p907
asbag61
(g82
g63
NtRp908
(dp909
g66
(dp910
g93
g94
ssg75
g899
sg68
(lp911
S':'
asbag61
(g82
g63
NtRp912
(dp913
g66
(dp914
sg75
g899
sg68
(lp915
g61
(g62
g63
NtRp916
(dp917
g66
(dp918
g74
I4
ssg75
g912
sg68
(lp919
S"<Values at 0x7f81342cf440: {'verbose': False, 'ip': '127.0.0.1', 'shutdown_timeout': 5, 'taskbar': False, 'nocron': False, 'pid_filename': 'httpserver.pid', 'maxthreads': None, 'softcron': False, 'server_name': 'Toblerone', 'bpython': False, 'nogui': False, 'port': 8000, 'extcron': False, 'debuglevel': 30, 'test': None, 'folder': '/home/rehas/web2py', 'config': '', 'import_models': False, 'winservice': '', 'shell': None, 'run': '', 'log_filename': 'httpserver.log', 'args': [''], 'socket_timeout': 5, 'ssl_ca_certificate': None, 'scheduler': None, 'profiler_filename': None, 'ssl_private_key': '', 'password': '<ask>', 'request_queue_size': 5, 'ssl_certificate': '', 'cronjob': False, 'numthreads': None, 'quiet': False, 'interfaces': None, 'minthreads': None, 'timeout': 10, 'plain': False, 'nobanner': False}>"
p920
asbasbasbag61
(g77
g63
NtRp921
(dp922
g66
(dp923
sg75
g826
sg68
(lp924
g61
(g82
g63
NtRp925
(dp926
g66
(dp927
g86
g87
ssg75
g921
sg68
(lp928
S'content_length'
p929
asbag61
(g82
g63
NtRp930
(dp931
g66
(dp932
g93
g94
ssg75
g921
sg68
(lp933
S':'
asbag61
(g82
g63
NtRp934
(dp935
g66
(dp936
sg75
g921
sg68
(lp937
g61
(g62
g63
NtRp938
(dp939
g66
(dp940
g74
I4
ssg75
g934
sg68
(lp941
S'1253'
p942
asbasbasbag61
(g77
g63
NtRp943
(dp944
g66
(dp945
sg75
g826
sg68
(lp946
g61
(g82
g63
NtRp947
(dp948
g66
(dp949
g86
g87
ssg75
g943
sg68
(lp950
S'content_type'
p951
asbag61
(g82
g63
NtRp952
(dp953
g66
(dp954
g93
g94
ssg75
g943
sg68
(lp955
S':'
asbag61
(g82
g63
NtRp956
(dp957
g66
(dp958
sg75
g943
sg68
(lp959
g61
(g62
g63
NtRp960
(dp961
g66
(dp962
g74
I4
ssg75
g956
sg68
(lp963
S'multipart/form-data; boundary=----WebKitFormBoundaryBokDkdcS6NdeRLiR'
p964
asbasbasbag61
(g77
g63
NtRp965
(dp966
g66
(dp967
sg75
g826
sg68
(lp968
g61
(g82
g63
NtRp969
(dp970
g66
(dp971
g86
g87
ssg75
g965
sg68
(lp972
S'db_sessions'
p973
asbag61
(g82
g63
NtRp974
(dp975
g66
(dp976
g93
g94
ssg75
g965
sg68
(lp977
S':'
asbag61
(g82
g63
NtRp978
(dp979
g66
(dp980
sg75
g965
sg68
(lp981
g61
(g62
g63
NtRp982
(dp983
g66
(dp984
g74
I4
ssg75
g978
sg68
(lp985
S'set([])'
p986
asbasbasbag61
(g77
g63
NtRp987
(dp988
g66
(dp989
sg75
g826
sg68
(lp990
g61
(g82
g63
NtRp991
(dp992
g66
(dp993
g86
g87
ssg75
g987
sg68
(lp994
S'debugging'
p995
asbag61
(g82
g63
NtRp996
(dp997
g66
(dp998
g93
g94
ssg75
g987
sg68
(lp999
S':'
asbag61
(g82
g63
NtRp1000
(dp1001
g66
(dp1002
sg75
g987
sg68
(lp1003
g61
(g62
g63
NtRp1004
(dp1005
g66
(dp1006
g74
I4
ssg75
g1000
sg68
(lp1007
g104
asbasbasbag61
(g77
g63
NtRp1008
(dp1009
g66
(dp1010
sg75
g826
sg68
(lp1011
g61
(g82
g63
NtRp1012
(dp1013
g66
(dp1014
g86
g87
ssg75
g1008
sg68
(lp1015
S'gluon_parent'
p1016
asbag61
(g82
g63
NtRp1017
(dp1018
g66
(dp1019
g93
g94
ssg75
g1008
sg68
(lp1020
S':'
asbag61
(g82
g63
NtRp1021
(dp1022
g66
(dp1023
sg75
g1008
sg68
(lp1024
g61
(g62
g63
NtRp1025
(dp1026
g66
(dp1027
g74
I4
ssg75
g1021
sg68
(lp1028
S'/usr/share/web2py'
p1029
asbasbasbag61
(g77
g63
NtRp1030
(dp1031
g66
(dp1032
sg75
g826
sg68
(lp1033
g61
(g82
g63
NtRp1034
(dp1035
g66
(dp1036
g86
g87
ssg75
g1030
sg68
(lp1037
S'http_accept'
p1038
asbag61
(g82
g63
NtRp1039
(dp1040
g66
(dp1041
g93
g94
ssg75
g1030
sg68
(lp1042
S':'
asbag61
(g82
g63
NtRp1043
(dp1044
g66
(dp1045
sg75
g1030
sg68
(lp1046
g61
(g62
g63
NtRp1047
(dp1048
g66
(dp1049
g74
I4
ssg75
g1043
sg68
(lp1050
S'text/html,application/xhtml+xml,application/xml;q=0.9,image/webp,*/*;q=0.8'
p1051
asbasbasbag61
(g77
g63
NtRp1052
(dp1053
g66
(dp1054
sg75
g826
sg68
(lp1055
g61
(g82
g63
NtRp1056
(dp1057
g66
(dp1058
g86
g87
ssg75
g1052
sg68
(lp1059
S'http_accept_encoding'
p1060
asbag61
(g82
g63
NtRp1061
(dp1062
g66
(dp1063
g93
g94
ssg75
g1052
sg68
(lp1064
S':'
asbag61
(g82
g63
NtRp1065
(dp1066
g66
(dp1067
sg75
g1052
sg68
(lp1068
g61
(g62
g63
NtRp1069
(dp1070
g66
(dp1071
g74
I4
ssg75
g1065
sg68
(lp1072
S'gzip, deflate'
p1073
asbasbasbag61
(g77
g63
NtRp1074
(dp1075
g66
(dp1076
sg75
g826
sg68
(lp1077
g61
(g82
g63
NtRp1078
(dp1079
g66
(dp1080
g86
g87
ssg75
g1074
sg68
(lp1081
S'http_accept_language'
p1082
asbag61
(g82
g63
NtRp1083
(dp1084
g66
(dp1085
g93
g94
ssg75
g1074
sg68
(lp1086
S':'
asbag61
(g82
g63
NtRp1087
(dp1088
g66
(dp1089
sg75
g1074
sg68
(lp1090
g61
(g62
g63
NtRp1091
(dp1092
g66
(dp1093
g74
I4
ssg75
g1087
sg68
(lp1094
S'en-US,en;q=0.8'
p1095
asbasbasbag61
(g77
g63
NtRp1096
(dp1097
g66
(dp1098
sg75
g826
sg68
(lp1099
g61
(g82
g63
NtRp1100
(dp1101
g66
(dp1102
g86
g87
ssg75
g1096
sg68
(lp1103
S'http_cache_control'
p1104
asbag61
(g82
g63
NtRp1105
(dp1106
g66
(dp1107
g93
g94
ssg75
g1096
sg68
(lp1108
S':'
asbag61
(g82
g63
NtRp1109
(dp1110
g66
(dp1111
sg75
g1096
sg68
(lp1112
g61
(g62
g63
NtRp1113
(dp1114
g66
(dp1115
g74
I4
ssg75
g1109
sg68
(lp1116
S'max-age=0'
p1117
asbasbasbag61
(g77
g63
NtRp1118
(dp1119
g66
(dp1120
sg75
g826
sg68
(lp1121
g61
(g82
g63
NtRp1122
(dp1123
g66
(dp1124
g86
g87
ssg75
g1118
sg68
(lp1125
S'http_connection'
p1126
asbag61
(g82
g63
NtRp1127
(dp1128
g66
(dp1129
g93
g94
ssg75
g1118
sg68
(lp1130
S':'
asbag61
(g82
g63
NtRp1131
(dp1132
g66
(dp1133
sg75
g1118
sg68
(lp1134
g61
(g62
g63
NtRp1135
(dp1136
g66
(dp1137
g74
I4
ssg75
g1131
sg68
(lp1138
S'keep-alive'
p1139
asbasbasbag61
(g77
g63
NtRp1140
(dp1141
g66
(dp1142
sg75
g826
sg68
(lp1143
g61
(g82
g63
NtRp1144
(dp1145
g66
(dp1146
g86
g87
ssg75
g1140
sg68
(lp1147
S'http_content_length'
p1148
asbag61
(g82
g63
NtRp1149
(dp1150
g66
(dp1151
g93
g94
ssg75
g1140
sg68
(lp1152
S':'
asbag61
(g82
g63
NtRp1153
(dp1154
g66
(dp1155
sg75
g1140
sg68
(lp1156
g61
(g62
g63
NtRp1157
(dp1158
g66
(dp1159
g74
I4
ssg75
g1153
sg68
(lp1160
g942
asbasbasbag61
(g77
g63
NtRp1161
(dp1162
g66
(dp1163
sg75
g826
sg68
(lp1164
g61
(g82
g63
NtRp1165
(dp1166
g66
(dp1167
g86
g87
ssg75
g1161
sg68
(lp1168
S'http_content_type'
p1169
asbag61
(g82
g63
NtRp1170
(dp1171
g66
(dp1172
g93
g94
ssg75
g1161
sg68
(lp1173
S':'
asbag61
(g82
g63
NtRp1174
(dp1175
g66
(dp1176
sg75
g1161
sg68
(lp1177
g61
(g62
g63
NtRp1178
(dp1179
g66
(dp1180
g74
I4
ssg75
g1174
sg68
(lp1181
g964
asbasbasbag61
(g77
g63
NtRp1182
(dp1183
g66
(dp1184
sg75
g826
sg68
(lp1185
g61
(g82
g63
NtRp1186
(dp1187
g66
(dp1188
g86
g87
ssg75
g1182
sg68
(lp1189
S'http_cookie'
p1190
asbag61
(g82
g63
NtRp1191
(dp1192
g66
(dp1193
g93
g94
ssg75
g1182
sg68
(lp1194
S':'
asbag61
(g82
g63
NtRp1195
(dp1196
g66
(dp1197
sg75
g1182
sg68
(lp1198
g61
(g62
g63
NtRp1199
(dp1200
g66
(dp1201
g74
I4
ssg75
g1195
sg68
(lp1202
S'session_id_welcome=127.0.0.1-08d6a30c-57df-41e8-9493-f779e3352903; session_id_admin=127.0.0.1-c4e18689-7edb-46fd-8f71-56a9dfe558f0; session_id_aarogya=127.0.0.1-e2ba3789-4d9c-48e7-a17b-bf51d819a3ae'
p1203
asbasbasbag61
(g77
g63
NtRp1204
(dp1205
g66
(dp1206
sg75
g826
sg68
(lp1207
g61
(g82
g63
NtRp1208
(dp1209
g66
(dp1210
g86
g87
ssg75
g1204
sg68
(lp1211
S'http_host'
p1212
asbag61
(g82
g63
NtRp1213
(dp1214
g66
(dp1215
g93
g94
ssg75
g1204
sg68
(lp1216
S':'
asbag61
(g82
g63
NtRp1217
(dp1218
g66
(dp1219
sg75
g1204
sg68
(lp1220
g61
(g62
g63
NtRp1221
(dp1222
g66
(dp1223
g74
I4
ssg75
g1217
sg68
(lp1224
S'127.0.0.1:8000'
p1225
asbasbasbag61
(g77
g63
NtRp1226
(dp1227
g66
(dp1228
sg75
g826
sg68
(lp1229
g61
(g82
g63
NtRp1230
(dp1231
g66
(dp1232
g86
g87
ssg75
g1226
sg68
(lp1233
S'http_origin'
p1234
asbag61
(g82
g63
NtRp1235
(dp1236
g66
(dp1237
g93
g94
ssg75
g1226
sg68
(lp1238
S':'
asbag61
(g82
g63
NtRp1239
(dp1240
g66
(dp1241
sg75
g1226
sg68
(lp1242
g61
(g62
g63
NtRp1243
(dp1244
g66
(dp1245
g74
I4
ssg75
g1239
sg68
(lp1246
S'http://127.0.0.1:8000'
p1247
asbasbasbag61
(g77
g63
NtRp1248
(dp1249
g66
(dp1250
sg75
g826
sg68
(lp1251
g61
(g82
g63
NtRp1252
(dp1253
g66
(dp1254
g86
g87
ssg75
g1248
sg68
(lp1255
S'http_referer'
p1256
asbag61
(g82
g63
NtRp1257
(dp1258
g66
(dp1259
g93
g94
ssg75
g1248
sg68
(lp1260
S':'
asbag61
(g82
g63
NtRp1261
(dp1262
g66
(dp1263
sg75
g1248
sg68
(lp1264
g61
(g62
g63
NtRp1265
(dp1266
g66
(dp1267
g74
I4
ssg75
g1261
sg68
(lp1268
S'http://127.0.0.1:8000/Aarogya/default/signin'
p1269
asbasbasbag61
(g77
g63
NtRp1270
(dp1271
g66
(dp1272
sg75
g826
sg68
(lp1273
g61
(g82
g63
NtRp1274
(dp1275
g66
(dp1276
g86
g87
ssg75
g1270
sg68
(lp1277
S'http_user_agent'
p1278
asbag61
(g82
g63
NtRp1279
(dp1280
g66
(dp1281
g93
g94
ssg75
g1270
sg68
(lp1282
S':'
asbag61
(g82
g63
NtRp1283
(dp1284
g66
(dp1285
sg75
g1270
sg68
(lp1286
g61
(g62
g63
NtRp1287
(dp1288
g66
(dp1289
g74
I4
ssg75
g1283
sg68
(lp1290
S'Mozilla/5.0 (X11; Linux x86_64) AppleWebKit/537.36 (KHTML, like Gecko) Chrome/41.0.2272.101 Safari/537.36'
p1291
asbasbasbag61
(g77
g63
NtRp1292
(dp1293
g66
(dp1294
sg75
g826
sg68
(lp1295
g61
(g82
g63
NtRp1296
(dp1297
g66
(dp1298
g86
g87
ssg75
g1292
sg68
(lp1299
S'is_jython'
p1300
asbag61
(g82
g63
NtRp1301
(dp1302
g66
(dp1303
g93
g94
ssg75
g1292
sg68
(lp1304
S':'
asbag61
(g82
g63
NtRp1305
(dp1306
g66
(dp1307
sg75
g1292
sg68
(lp1308
g61
(g62
g63
NtRp1309
(dp1310
g66
(dp1311
g74
I4
ssg75
g1305
sg68
(lp1312
g104
asbasbasbag61
(g77
g63
NtRp1313
(dp1314
g66
(dp1315
sg75
g826
sg68
(lp1316
g61
(g82
g63
NtRp1317
(dp1318
g66
(dp1319
g86
g87
ssg75
g1313
sg68
(lp1320
S'is_pypy'
p1321
asbag61
(g82
g63
NtRp1322
(dp1323
g66
(dp1324
g93
g94
ssg75
g1313
sg68
(lp1325
S':'
asbag61
(g82
g63
NtRp1326
(dp1327
g66
(dp1328
sg75
g1313
sg68
(lp1329
g61
(g62
g63
NtRp1330
(dp1331
g66
(dp1332
g74
I4
ssg75
g1326
sg68
(lp1333
g104
asbasbasbag61
(g77
g63
NtRp1334
(dp1335
g66
(dp1336
sg75
g826
sg68
(lp1337
g61
(g82
g63
NtRp1338
(dp1339
g66
(dp1340
g86
g87
ssg75
g1334
sg68
(lp1341
S'path_info'
p1342
asbag61
(g82
g63
NtRp1343
(dp1344
g66
(dp1345
g93
g94
ssg75
g1334
sg68
(lp1346
S':'
asbag61
(g82
g63
NtRp1347
(dp1348
g66
(dp1349
sg75
g1334
sg68
(lp1350
g61
(g62
g63
NtRp1351
(dp1352
g66
(dp1353
g74
I4
ssg75
g1347
sg68
(lp1354
S'/Aarogya/default/signin'
p1355
asbasbasbag61
(g77
g63
NtRp1356
(dp1357
g66
(dp1358
sg75
g826
sg68
(lp1359
g61
(g82
g63
NtRp1360
(dp1361
g66
(dp1362
g86
g87
ssg75
g1356
sg68
(lp1363
S'query_string'
p1364
asbag61
(g82
g63
NtRp1365
(dp1366
g66
(dp1367
g93
g94
ssg75
g1356
sg68
(lp1368
S':'
asbag61
(g82
g63
NtRp1369
(dp1370
g66
(dp1371
sg75
g1356
sg68
(lp1372
g61
(g62
g63
NtRp1373
(dp1374
g66
(dp1375
g74
I4
ssg75
g1369
sg68
(lp1376
S''
asbasbasbag61
(g77
g63
NtRp1377
(dp1378
g66
(dp1379
sg75
g826
sg68
(lp1380
g61
(g82
g63
NtRp1381
(dp1382
g66
(dp1383
g86
g87
ssg75
g1377
sg68
(lp1384
S'remote_addr'
p1385
asbag61
(g82
g63
NtRp1386
(dp1387
g66
(dp1388
g93
g94
ssg75
g1377
sg68
(lp1389
S':'
asbag61
(g82
g63
NtRp1390
(dp1391
g66
(dp1392
sg75
g1377
sg68
(lp1393
g61
(g62
g63
NtRp1394
(dp1395
g66
(dp1396
g74
I4
ssg75
g1390
sg68
(lp1397
g194
asbasbasbag61
(g77
g63
NtRp1398
(dp1399
g66
(dp1400
sg75
g826
sg68
(lp1401
g61
(g82
g63
NtRp1402
(dp1403
g66
(dp1404
g86
g87
ssg75
g1398
sg68
(lp1405
S'remote_port'
p1406
asbag61
(g82
g63
NtRp1407
(dp1408
g66
(dp1409
g93
g94
ssg75
g1398
sg68
(lp1410
S':'
asbag61
(g82
g63
NtRp1411
(dp1412
g66
(dp1413
sg75
g1398
sg68
(lp1414
g61
(g62
g63
NtRp1415
(dp1416
g66
(dp1417
g74
I4
ssg75
g1411
sg68
(lp1418
S'56692'
p1419
asbasbasbag61
(g77
g63
NtRp1420
(dp1421
g66
(dp1422
sg75
g826
sg68
(lp1423
g61
(g82
g63
NtRp1424
(dp1425
g66
(dp1426
g86
g87
ssg75
g1420
sg68
(lp1427
S'request_method'
p1428
asbag61
(g82
g63
NtRp1429
(dp1430
g66
(dp1431
g93
g94
ssg75
g1420
sg68
(lp1432
S':'
asbag61
(g82
g63
NtRp1433
(dp1434
g66
(dp1435
sg75
g1420
sg68
(lp1436
g61
(g62
g63
NtRp1437
(dp1438
g66
(dp1439
g74
I4
ssg75
g1433
sg68
(lp1440
S'POST'
p1441
asbasbasbag61
(g77
g63
NtRp1442
(dp1443
g66
(dp1444
sg75
g826
sg68
(lp1445
g61
(g82
g63
NtRp1446
(dp1447
g66
(dp1448
g86
g87
ssg75
g1442
sg68
(lp1449
S'script_name'
p1450
asbag61
(g82
g63
NtRp1451
(dp1452
g66
(dp1453
g93
g94
ssg75
g1442
sg68
(lp1454
S':'
asbag61
(g82
g63
NtRp1455
(dp1456
g66
(dp1457
sg75
g1442
sg68
(lp1458
g61
(g62
g63
NtRp1459
(dp1460
g66
(dp1461
g74
I4
ssg75
g1455
sg68
(lp1462
S''
asbasbasbag61
(g77
g63
NtRp1463
(dp1464
g66
(dp1465
sg75
g826
sg68
(lp1466
g61
(g82
g63
NtRp1467
(dp1468
g66
(dp1469
g86
g87
ssg75
g1463
sg68
(lp1470
S'server_name'
p1471
asbag61
(g82
g63
NtRp1472
(dp1473
g66
(dp1474
g93
g94
ssg75
g1463
sg68
(lp1475
S':'
asbag61
(g82
g63
NtRp1476
(dp1477
g66
(dp1478
sg75
g1463
sg68
(lp1479
g61
(g62
g63
NtRp1480
(dp1481
g66
(dp1482
g74
I4
ssg75
g1476
sg68
(lp1483
S'Toblerone'
p1484
asbasbasbag61
(g77
g63
NtRp1485
(dp1486
g66
(dp1487
sg75
g826
sg68
(lp1488
g61
(g82
g63
NtRp1489
(dp1490
g66
(dp1491
g86
g87
ssg75
g1485
sg68
(lp1492
S'server_port'
p1493
asbag61
(g82
g63
NtRp1494
(dp1495
g66
(dp1496
g93
g94
ssg75
g1485
sg68
(lp1497
S':'
asbag61
(g82
g63
NtRp1498
(dp1499
g66
(dp1500
sg75
g1485
sg68
(lp1501
g61
(g62
g63
NtRp1502
(dp1503
g66
(dp1504
g74
I4
ssg75
g1498
sg68
(lp1505
S'8000'
p1506
asbasbasbag61
(g77
g63
NtRp1507
(dp1508
g66
(dp1509
sg75
g826
sg68
(lp1510
g61
(g82
g63
NtRp1511
(dp1512
g66
(dp1513
g86
g87
ssg75
g1507
sg68
(lp1514
S'server_protocol'
p1515
asbag61
(g82
g63
NtRp1516
(dp1517
g66
(dp1518
g93
g94
ssg75
g1507
sg68
(lp1519
S':'
asbag61
(g82
g63
NtRp1520
(dp1521
g66
(dp1522
sg75
g1507
sg68
(lp1523
g61
(g62
g63
NtRp1524
(dp1525
g66
(dp1526
g74
I4
ssg75
g1520
sg68
(lp1527
S'HTTP/1.1'
p1528
asbasbasbag61
(g77
g63
NtRp1529
(dp1530
g66
(dp1531
sg75
g826
sg68
(lp1532
g61
(g82
g63
NtRp1533
(dp1534
g66
(dp1535
g86
g87
ssg75
g1529
sg68
(lp1536
S'server_software'
p1537
asbag61
(g82
g63
NtRp1538
(dp1539
g66
(dp1540
g93
g94
ssg75
g1529
sg68
(lp1541
S':'
asbag61
(g82
g63
NtRp1542
(dp1543
g66
(dp1544
sg75
g1529
sg68
(lp1545
g61
(g62
g63
NtRp1546
(dp1547
g66
(dp1548
g74
I4
ssg75
g1542
sg68
(lp1549
S'Rocket 1.2.4'
p1550
asbasbasbag61
(g77
g63
NtRp1551
(dp1552
g66
(dp1553
sg75
g826
sg68
(lp1554
g61
(g82
g63
NtRp1555
(dp1556
g66
(dp1557
g86
g87
ssg75
g1551
sg68
(lp1558
S'web2py_crontype'
p1559
asbag61
(g82
g63
NtRp1560
(dp1561
g66
(dp1562
g93
g94
ssg75
g1551
sg68
(lp1563
S':'
asbag61
(g82
g63
NtRp1564
(dp1565
g66
(dp1566
sg75
g1551
sg68
(lp1567
g61
(g62
g63
NtRp1568
(dp1569
g66
(dp1570
g74
I4
ssg75
g1564
sg68
(lp1571
S'hard'
p1572
asbasbasbag61
(g77
g63
NtRp1573
(dp1574
g66
(dp1575
sg75
g826
sg68
(lp1576
g61
(g82
g63
NtRp1577
(dp1578
g66
(dp1579
g86
g87
ssg75
g1573
sg68
(lp1580
S'web2py_path'
p1581
asbag61
(g82
g63
NtRp1582
(dp1583
g66
(dp1584
g93
g94
ssg75
g1573
sg68
(lp1585
S':'
asbag61
(g82
g63
NtRp1586
(dp1587
g66
(dp1588
sg75
g1573
sg68
(lp1589
g61
(g62
g63
NtRp1590
(dp1591
g66
(dp1592
g74
I4
ssg75
g1586
sg68
(lp1593
g873
asbasbasbag61
(g77
g63
NtRp1594
(dp1595
g66
(dp1596
sg75
g826
sg68
(lp1597
g61
(g82
g63
NtRp1598
(dp1599
g66
(dp1600
g86
g87
ssg75
g1594
sg68
(lp1601
S'web2py_version'
p1602
asbag61
(g82
g63
NtRp1603
(dp1604
g66
(dp1605
g93
g94
ssg75
g1594
sg68
(lp1606
S':'
asbag61
(g82
g63
NtRp1607
(dp1608
g66
(dp1609
sg75
g1594
sg68
(lp1610
g61
(g62
g63
NtRp1611
(dp1612
g66
(dp1613
g74
I4
ssg75
g1607
sg68
(lp1614
g61
(g70
g63
NtRp1615
(dp1616
g66
(dp1617
g74
I3
ssg75
Nsg68
(lp1618
g61
(g77
g63
NtRp1619
(dp1620
g66
(dp1621
sg75
g1615
sg68
(lp1622
g61
(g82
g63
NtRp1623
(dp1624
g66
(dp1625
sg75
g1619
sg68
(lp1626
g61
(g62
g63
NtRp1627
(dp1628
g66
(dp1629
g74
I3
ssg75
g1623
sg68
(lp1630
S'1'
asbasbasbag61
(g77
g63
NtRp1631
(dp1632
g66
(dp1633
sg75
g1615
sg68
(lp1634
g61
(g82
g63
NtRp1635
(dp1636
g66
(dp1637
sg75
g1631
sg68
(lp1638
g61
(g62
g63
NtRp1639
(dp1640
g66
(dp1641
g74
I3
ssg75
g1635
sg68
(lp1642
S'99'
p1643
asbasbasbag61
(g77
g63
NtRp1644
(dp1645
g66
(dp1646
sg75
g1615
sg68
(lp1647
g61
(g82
g63
NtRp1648
(dp1649
g66
(dp1650
sg75
g1644
sg68
(lp1651
g61
(g62
g63
NtRp1652
(dp1653
g66
(dp1654
g74
I3
ssg75
g1648
sg68
(lp1655
S'7'
asbasbasbag61
(g77
g63
NtRp1656
(dp1657
g66
(dp1658
sg75
g1615
sg68
(lp1659
g61
(g82
g63
NtRp1660
(dp1661
g66
(dp1662
sg75
g1656
sg68
(lp1663
g61
(g62
g63
NtRp1664
(dp1665
g66
(dp1666
g74
I3
ssg75
g1660
sg68
(lp1667
S'datetime.datetime(2012, 3, 4, 22, 12, 8)'
p1668
asbasbasbag61
(g77
g63
NtRp1669
(dp1670
g66
(dp1671
sg75
g1615
sg68
(lp1672
g61
(g82
g63
NtRp1673
(dp1674
g66
(dp1675
sg75
g1669
sg68
(lp1676
g61
(g62
g63
NtRp1677
(dp1678
g66
(dp1679
g74
I3
ssg75
g1673
sg68
(lp1680
S'stable'
p1681
asbasbasbasbasbasbasbag61
(g77
g63
NtRp1682
(dp1683
g66
(dp1684
sg75
g826
sg68
(lp1685
g61
(g82
g63
NtRp1686
(dp1687
g66
(dp1688
g86
g87
ssg75
g1682
sg68
(lp1689
S'wsgi_errors'
p1690
asbag61
(g82
g63
NtRp1691
(dp1692
g66
(dp1693
g93
g94
ssg75
g1682
sg68
(lp1694
S':'
asbag61
(g82
g63
NtRp1695
(dp1696
g66
(dp1697
sg75
g1682
sg68
(lp1698
g61
(g62
g63
NtRp1699
(dp1700
g66
(dp1701
g74
I4
ssg75
g1695
sg68
(lp1702
S"<open file '<stderr>', mode 'w' at 0x7f81385401e0>"
p1703
asbasbasbag61
(g77
g63
NtRp1704
(dp1705
g66
(dp1706
sg75
g826
sg68
(lp1707
g61
(g82
g63
NtRp1708
(dp1709
g66
(dp1710
g86
g87
ssg75
g1704
sg68
(lp1711
S'wsgi_file_wrapper'
p1712
asbag61
(g82
g63
NtRp1713
(dp1714
g66
(dp1715
g93
g94
ssg75
g1704
sg68
(lp1716
S':'
asbag61
(g82
g63
NtRp1717
(dp1718
g66
(dp1719
sg75
g1704
sg68
(lp1720
g61
(g62
g63
NtRp1721
(dp1722
g66
(dp1723
g74
I4
ssg75
g1717
sg68
(lp1724
S'<class wsgiref.util.FileWrapper at 0x7f8134499bb0>'
p1725
asbasbasbag61
(g77
g63
NtRp1726
(dp1727
g66
(dp1728
sg75
g826
sg68
(lp1729
g61
(g82
g63
NtRp1730
(dp1731
g66
(dp1732
g86
g87
ssg75
g1726
sg68
(lp1733
S'wsgi_input'
p1734
asbag61
(g82
g63
NtRp1735
(dp1736
g66
(dp1737
g93
g94
ssg75
g1726
sg68
(lp1738
S':'
asbag61
(g82
g63
NtRp1739
(dp1740
g66
(dp1741
sg75
g1726
sg68
(lp1742
g61
(g62
g63
NtRp1743
(dp1744
g66
(dp1745
g74
I4
ssg75
g1739
sg68
(lp1746
S'<socket._fileobject object at 0x7f80de3440d0>'
p1747
asbasbasbag61
(g77
g63
NtRp1748
(dp1749
g66
(dp1750
sg75
g826
sg68
(lp1751
g61
(g82
g63
NtRp1752
(dp1753
g66
(dp1754
g86
g87
ssg75
g1748
sg68
(lp1755
S'wsgi_multiprocess'
p1756
asbag61
(g82
g63
NtRp1757
(dp1758
g66
(dp1759
g93
g94
ssg75
g1748
sg68
(lp1760
S':'
asbag61
(g82
g63
NtRp1761
(dp1762
g66
(dp1763
sg75
g1748
sg68
(lp1764
g61
(g62
g63
NtRp1765
(dp1766
g66
(dp1767
g74
I4
ssg75
g1761
sg68
(lp1768
g104
asbasbasbag61
(g77
g63
NtRp1769
(dp1770
g66
(dp1771
sg75
g826
sg68
(lp1772
g61
(g82
g63
NtRp1773
(dp1774
g66
(dp1775
g86
g87
ssg75
g1769
sg68
(lp1776
S'wsgi_multithread'
p1777
asbag61
(g82
g63
NtRp1778
(dp1779
g66
(dp1780
g93
g94
ssg75
g1769
sg68
(lp1781
S':'
asbag61
(g82
g63
NtRp1782
(dp1783
g66
(dp1784
sg75
g1769
sg68
(lp1785
g61
(g62
g63
NtRp1786
(dp1787
g66
(dp1788
g74
I4
ssg75
g1782
sg68
(lp1789
S'True'
p1790
asbasbasbag61
(g77
g63
NtRp1791
(dp1792
g66
(dp1793
sg75
g826
sg68
(lp1794
g61
(g82
g63
NtRp1795
(dp1796
g66
(dp1797
g86
g87
ssg75
g1791
sg68
(lp1798
S'wsgi_run_once'
p1799
asbag61
(g82
g63
NtRp1800
(dp1801
g66
(dp1802
g93
g94
ssg75
g1791
sg68
(lp1803
S':'
asbag61
(g82
g63
NtRp1804
(dp1805
g66
(dp1806
sg75
g1791
sg68
(lp1807
g61
(g62
g63
NtRp1808
(dp1809
g66
(dp1810
g74
I4
ssg75
g1804
sg68
(lp1811
g104
asbasbasbag61
(g77
g63
NtRp1812
(dp1813
g66
(dp1814
sg75
g826
sg68
(lp1815
g61
(g82
g63
NtRp1816
(dp1817
g66
(dp1818
g86
g87
ssg75
g1812
sg68
(lp1819
S'wsgi_url_scheme'
p1820
asbag61
(g82
g63
NtRp1821
(dp1822
g66
(dp1823
g93
g94
ssg75
g1812
sg68
(lp1824
S':'
asbag61
(g82
g63
NtRp1825
(dp1826
g66
(dp1827
sg75
g1812
sg68
(lp1828
g61
(g62
g63
NtRp1829
(dp1830
g66
(dp1831
g74
I4
ssg75
g1825
sg68
(lp1832
S'http'
p1833
asbasbasbag61
(g77
g63
NtRp1834
(dp1835
g66
(dp1836
sg75
g826
sg68
(lp1837
g61
(g82
g63
NtRp1838
(dp1839
g66
(dp1840
g86
g87
ssg75
g1834
sg68
(lp1841
S'wsgi_version'
p1842
asbag61
(g82
g63
NtRp1843
(dp1844
g66
(dp1845
g93
g94
ssg75
g1834
sg68
(lp1846
S':'
asbag61
(g82
g63
NtRp1847
(dp1848
g66
(dp1849
sg75
g1834
sg68
(lp1850
g61
(g62
g63
NtRp1851
(dp1852
g66
(dp1853
g74
I4
ssg75
g1847
sg68
(lp1854
g61
(g70
g63
NtRp1855
(dp1856
g66
(dp1857
g74
I3
ssg75
Nsg68
(lp1858
g61
(g77
g63
NtRp1859
(dp1860
g66
(dp1861
sg75
g1855
sg68
(lp1862
g61
(g82
g63
NtRp1863
(dp1864
g66
(dp1865
sg75
g1859
sg68
(lp1866
g61
(g62
g63
NtRp1867
(dp1868
g66
(dp1869
g74
I3
ssg75
g1863
sg68
(lp1870
S'1'
asbasbasbag61
(g77
g63
NtRp1871
(dp1872
g66
(dp1873
sg75
g1855
sg68
(lp1874
g61
(g82
g63
NtRp1875
(dp1876
g66
(dp1877
sg75
g1871
sg68
(lp1878
g61
(g62
g63
NtRp1879
(dp1880
g66
(dp1881
g74
I3
ssg75
g1875
sg68
(lp1882
S'0'
asbasbasbasbasbasbasbasbasbasbasbag61
(g77
g63
NtRp1883
(dp1884
g66
(dp1885
sg75
g71
sg68
(lp1886
g61
(g82
g63
NtRp1887
(dp1888
g66
(dp1889
g86
g87
ssg75
g1883
sg68
(lp1890
S'extension'
p1891
asbag61
(g82
g63
NtRp1892
(dp1893
g66
(dp1894
g93
g94
ssg75
g1883
sg68
(lp1895
S':'
asbag61
(g82
g63
NtRp1896
(dp1897
g66
(dp1898
sg75
g1883
sg68
(lp1899
g61
(g62
g63
NtRp1900
(dp1901
g66
(dp1902
g74
I5
ssg75
g1896
sg68
(lp1903
S'html'
p1904
asbasbasbag61
(g77
g63
NtRp1905
(dp1906
g66
(dp1907
sg75
g71
sg68
(lp1908
g61
(g82
g63
NtRp1909
(dp1910
g66
(dp1911
g86
g87
ssg75
g1905
sg68
(lp1912
S'folder'
p1913
asbag61
(g82
g63
NtRp1914
(dp1915
g66
(dp1916
g93
g94
ssg75
g1905
sg68
(lp1917
S':'
asbag61
(g82
g63
NtRp1918
(dp1919
g66
(dp1920
sg75
g1905
sg68
(lp1921
g61
(g62
g63
NtRp1922
(dp1923
g66
(dp1924
g74
I5
ssg75
g1918
sg68
(lp1925
S'/home/rehas/web2py/applications/Aarogya/'
p1926
asbasbasbag61
(g77
g63
NtRp1927
(dp1928
g66
(dp1929
sg75
g71
sg68
(lp1930
g61
(g82
g63
NtRp1931
(dp1932
g66
(dp1933
g86
g87
ssg75
g1927
sg68
(lp1934
S'function'
p1935
asbag61
(g82
g63
NtRp1936
(dp1937
g66
(dp1938
g93
g94
ssg75
g1927
sg68
(lp1939
S':'
asbag61
(g82
g63
NtRp1940
(dp1941
g66
(dp1942
sg75
g1927
sg68
(lp1943
g61
(g62
g63
NtRp1944
(dp1945
g66
(dp1946
g74
I5
ssg75
g1940
sg68
(lp1947
S'signin'
p1948
asbasbasbag61
(g77
g63
NtRp1949
(dp1950
g66
(dp1951
sg75
g71
sg68
(lp1952
g61
(g82
g63
NtRp1953
(dp1954
g66
(dp1955
g86
g87
ssg75
g1949
sg68
(lp1956
S'get_vars'
p1957
asbag61
(g82
g63
NtRp1958
(dp1959
g66
(dp1960
g93
g94
ssg75
g1949
sg68
(lp1961
S':'
asbag61
(g82
g63
NtRp1962
(dp1963
g66
(dp1964
sg75
g1949
sg68
(lp1965
g61
(g62
g63
NtRp1966
(dp1967
g66
(dp1968
g74
I5
ssg75
g1962
sg68
(lp1969
g61
(g70
g63
NtRp1970
(dp1971
g66
(dp1972
g74
I4
ssg75
Nsg68
(lp1973
sbasbasbasbag61
(g77
g63
NtRp1974
(dp1975
g66
(dp1976
sg75
g71
sg68
(lp1977
g61
(g82
g63
NtRp1978
(dp1979
g66
(dp1980
g86
g87
ssg75
g1974
sg68
(lp1981
S'global_settings'
p1982
asbag61
(g82
g63
NtRp1983
(dp1984
g66
(dp1985
g93
g94
ssg75
g1974
sg68
(lp1986
S':'
asbag61
(g82
g63
NtRp1987
(dp1988
g66
(dp1989
sg75
g1974
sg68
(lp1990
g61
(g62
g63
NtRp1991
(dp1992
g66
(dp1993
g74
I5
ssg75
g1987
sg68
(lp1994
g61
(g70
g63
NtRp1995
(dp1996
g66
(dp1997
g74
I4
ssg75
Nsg68
(lp1998
g61
(g77
g63
NtRp1999
(dp2000
g66
(dp2001
sg75
g1995
sg68
(lp2002
g61
(g82
g63
NtRp2003
(dp2004
g66
(dp2005
g86
g87
ssg75
g1999
sg68
(lp2006
g838
asbag61
(g82
g63
NtRp2007
(dp2008
g66
(dp2009
g93
g94
ssg75
g1999
sg68
(lp2010
S':'
asbag61
(g82
g63
NtRp2011
(dp2012
g66
(dp2013
sg75
g1999
sg68
(lp2014
g61
(g62
g63
NtRp2015
(dp2016
g66
(dp2017
g74
I4
ssg75
g2011
sg68
(lp2018
S"set(['/home/rehas/web2py/applications/Aarogya/', '/home/rehas/web2py/applications/admin/', '/home/rehas/web2py/applications/welcome/'])"
p2019
asbasbasbag61
(g77
g63
NtRp2020
(dp2021
g66
(dp2022
sg75
g1995
sg68
(lp2023
g61
(g82
g63
NtRp2024
(dp2025
g66
(dp2026
g86
g87
ssg75
g2020
sg68
(lp2027
g860
asbag61
(g82
g63
NtRp2028
(dp2029
g66
(dp2030
g93
g94
ssg75
g2020
sg68
(lp2031
S':'
asbag61
(g82
g63
NtRp2032
(dp2033
g66
(dp2034
sg75
g2020
sg68
(lp2035
g61
(g62
g63
NtRp2036
(dp2037
g66
(dp2038
g74
I4
ssg75
g2032
sg68
(lp2039
g873
asbasbasbag61
(g77
g63
NtRp2040
(dp2041
g66
(dp2042
sg75
g1995
sg68
(lp2043
g61
(g82
g63
NtRp2044
(dp2045
g66
(dp2046
g86
g87
ssg75
g2040
sg68
(lp2047
g882
asbag61
(g82
g63
NtRp2048
(dp2049
g66
(dp2050
g93
g94
ssg75
g2040
sg68
(lp2051
S':'
asbag61
(g82
g63
NtRp2052
(dp2053
g66
(dp2054
sg75
g2040
sg68
(lp2055
g61
(g62
g63
NtRp2056
(dp2057
g66
(dp2058
g74
I4
ssg75
g2052
sg68
(lp2059
g61
(g70
g63
NtRp2060
(dp2061
g66
(dp2062
g74
I3
ssg75
Nsg68
(lp2063
sbasbasbasbag61
(g77
g63
NtRp2064
(dp2065
g66
(dp2066
sg75
g1995
sg68
(lp2067
g61
(g82
g63
NtRp2068
(dp2069
g66
(dp2070
g86
g87
ssg75
g2064
sg68
(lp2071
g907
asbag61
(g82
g63
NtRp2072
(dp2073
g66
(dp2074
g93
g94
ssg75
g2064
sg68
(lp2075
S':'
asbag61
(g82
g63
NtRp2076
(dp2077
g66
(dp2078
sg75
g2064
sg68
(lp2079
g61
(g62
g63
NtRp2080
(dp2081
g66
(dp2082
g74
I4
ssg75
g2076
sg68
(lp2083
S"<Values at 0x7f81342cf440: {'verbose': False, 'ip': '127.0.0.1', 'shutdown_timeout': 5, 'taskbar': False, 'nocron': False, 'pid_filename': 'httpserver.pid', 'maxthreads': None, 'softcron': False, 'server_name': 'Toblerone', 'bpython': False, 'nogui': False, 'port': 8000, 'extcron': False, 'debuglevel': 30, 'test': None, 'folder': '/home/rehas/web2py', 'config': '', 'import_models': False, 'winservice': '', 'shell': None, 'run': '', 'log_filename': 'httpserver.log', 'args': [''], 'socket_timeout': 5, 'ssl_ca_certificate': None, 'scheduler': None, 'profiler_filename': None, 'ssl_private_key': '', 'password': '<ask>', 'request_queue_size': 5, 'ssl_certificate': '', 'cronjob': False, 'numthreads': None, 'quiet': False, 'interfaces': None, 'minthreads': None, 'timeout': 10, 'plain': False, 'nobanner': False}>"
p2084
asbasbasbag61
(g77
g63
NtRp2085
(dp2086
g66
(dp2087
sg75
g1995
sg68
(lp2088
g61
(g82
g63
NtRp2089
(dp2090
g66
(dp2091
g86
g87
ssg75
g2085
sg68
(lp2092
g973
asbag61
(g82
g63
NtRp2093
(dp2094
g66
(dp2095
g93
g94
ssg75
g2085
sg68
(lp2096
S':'
asbag61
(g82
g63
NtRp2097
(dp2098
g66
(dp2099
sg75
g2085
sg68
(lp2100
g61
(g62
g63
NtRp2101
(dp2102
g66
(dp2103
g74
I4
ssg75
g2097
sg68
(lp2104
S'set([])'
p2105
asbasbasbag61
(g77
g63
NtRp2106
(dp2107
g66
(dp2108
sg75
g1995
sg68
(lp2109
g61
(g82
g63
NtRp2110
(dp2111
g66
(dp2112
g86
g87
ssg75
g2106
sg68
(lp2113
g995
asbag61
(g82
g63
NtRp2114
(dp2115
g66
(dp2116
g93
g94
ssg75
g2106
sg68
(lp2117
S':'
asbag61
(g82
g63
NtRp2118
(dp2119
g66
(dp2120
sg75
g2106
sg68
(lp2121
g61
(g62
g63
NtRp2122
(dp2123
g66
(dp2124
g74
I4
ssg75
g2118
sg68
(lp2125
g104
asbasbasbag61
(g77
g63
NtRp2126
(dp2127
g66
(dp2128
sg75
g1995
sg68
(lp2129
g61
(g82
g63
NtRp2130
(dp2131
g66
(dp2132
g86
g87
ssg75
g2126
sg68
(lp2133
g1016
asbag61
(g82
g63
NtRp2134
(dp2135
g66
(dp2136
g93
g94
ssg75
g2126
sg68
(lp2137
S':'
asbag61
(g82
g63
NtRp2138
(dp2139
g66
(dp2140
sg75
g2126
sg68
(lp2141
g61
(g62
g63
NtRp2142
(dp2143
g66
(dp2144
g74
I4
ssg75
g2138
sg68
(lp2145
g1029
asbasbasbag61
(g77
g63
NtRp2146
(dp2147
g66
(dp2148
sg75
g1995
sg68
(lp2149
g61
(g82
g63
NtRp2150
(dp2151
g66
(dp2152
g86
g87
ssg75
g2146
sg68
(lp2153
g1300
asbag61
(g82
g63
NtRp2154
(dp2155
g66
(dp2156
g93
g94
ssg75
g2146
sg68
(lp2157
S':'
asbag61
(g82
g63
NtRp2158
(dp2159
g66
(dp2160
sg75
g2146
sg68
(lp2161
g61
(g62
g63
NtRp2162
(dp2163
g66
(dp2164
g74
I4
ssg75
g2158
sg68
(lp2165
g104
asbasbasbag61
(g77
g63
NtRp2166
(dp2167
g66
(dp2168
sg75
g1995
sg68
(lp2169
g61
(g82
g63
NtRp2170
(dp2171
g66
(dp2172
g86
g87
ssg75
g2166
sg68
(lp2173
g1321
asbag61
(g82
g63
NtRp2174
(dp2175
g66
(dp2176
g93
g94
ssg75
g2166
sg68
(lp2177
S':'
asbag61
(g82
g63
NtRp2178
(dp2179
g66
(dp2180
sg75
g2166
sg68
(lp2181
g61
(g62
g63
NtRp2182
(dp2183
g66
(dp2184
g74
I4
ssg75
g2178
sg68
(lp2185
g104
asbasbasbag61
(g77
g63
NtRp2186
(dp2187
g66
(dp2188
sg75
g1995
sg68
(lp2189
g61
(g82
g63
NtRp2190
(dp2191
g66
(dp2192
g86
g87
ssg75
g2186
sg68
(lp2193
g1559
asbag61
(g82
g63
NtRp2194
(dp2195
g66
(dp2196
g93
g94
ssg75
g2186
sg68
(lp2197
S':'
asbag61
(g82
g63
NtRp2198
(dp2199
g66
(dp2200
sg75
g2186
sg68
(lp2201
g61
(g62
g63
NtRp2202
(dp2203
g66
(dp2204
g74
I4
ssg75
g2198
sg68
(lp2205
g1572
asbasbasbag61
(g77
g63
NtRp2206
(dp2207
g66
(dp2208
sg75
g1995
sg68
(lp2209
g61
(g82
g63
NtRp2210
(dp2211
g66
(dp2212
g86
g87
ssg75
g2206
sg68
(lp2213
g1602
asbag61
(g82
g63
NtRp2214
(dp2215
g66
(dp2216
g93
g94
ssg75
g2206
sg68
(lp2217
S':'
asbag61
(g82
g63
NtRp2218
(dp2219
g66
(dp2220
sg75
g2206
sg68
(lp2221
g61
(g62
g63
NtRp2222
(dp2223
g66
(dp2224
g74
I4
ssg75
g2218
sg68
(lp2225
g61
(g70
g63
NtRp2226
(dp2227
g66
(dp2228
g74
I3
ssg75
Nsg68
(lp2229
g61
(g77
g63
NtRp2230
(dp2231
g66
(dp2232
sg75
g2226
sg68
(lp2233
g61
(g82
g63
NtRp2234
(dp2235
g66
(dp2236
sg75
g2230
sg68
(lp2237
g61
(g62
g63
NtRp2238
(dp2239
g66
(dp2240
g74
I3
ssg75
g2234
sg68
(lp2241
S'1'
asbasbasbag61
(g77
g63
NtRp2242
(dp2243
g66
(dp2244
sg75
g2226
sg68
(lp2245
g61
(g82
g63
NtRp2246
(dp2247
g66
(dp2248
sg75
g2242
sg68
(lp2249
g61
(g62
g63
NtRp2250
(dp2251
g66
(dp2252
g74
I3
ssg75
g2246
sg68
(lp2253
S'99'
p2254
asbasbasbag61
(g77
g63
NtRp2255
(dp2256
g66
(dp2257
sg75
g2226
sg68
(lp2258
g61
(g82
g63
NtRp2259
(dp2260
g66
(dp2261
sg75
g2255
sg68
(lp2262
g61
(g62
g63
NtRp2263
(dp2264
g66
(dp2265
g74
I3
ssg75
g2259
sg68
(lp2266
S'7'
asbasbasbag61
(g77
g63
NtRp2267
(dp2268
g66
(dp2269
sg75
g2226
sg68
(lp2270
g61
(g82
g63
NtRp2271
(dp2272
g66
(dp2273
sg75
g2267
sg68
(lp2274
g61
(g62
g63
NtRp2275
(dp2276
g66
(dp2277
g74
I3
ssg75
g2271
sg68
(lp2278
S'datetime.datetime(2012, 3, 4, 22, 12, 8)'
p2279
asbasbasbag61
(g77
g63
NtRp2280
(dp2281
g66
(dp2282
sg75
g2226
sg68
(lp2283
g61
(g82
g63
NtRp2284
(dp2285
g66
(dp2286
sg75
g2280
sg68
(lp2287
g61
(g62
g63
NtRp2288
(dp2289
g66
(dp2290
g74
I3
ssg75
g2284
sg68
(lp2291
g1681
asbasbasbasbasbasbasbasbasbasbasbag61
(g77
g63
NtRp2292
(dp2293
g66
(dp2294
sg75
g71
sg68
(lp2295
g61
(g82
g63
NtRp2296
(dp2297
g66
(dp2298
g86
g87
ssg75
g2292
sg68
(lp2299
S'is_https'
p2300
asbag61
(g82
g63
NtRp2301
(dp2302
g66
(dp2303
g93
g94
ssg75
g2292
sg68
(lp2304
S':'
asbag61
(g82
g63
NtRp2305
(dp2306
g66
(dp2307
sg75
g2292
sg68
(lp2308
g61
(g62
g63
NtRp2309
(dp2310
g66
(dp2311
g74
I5
ssg75
g2305
sg68
(lp2312
g104
asbasbasbag61
(g77
g63
NtRp2313
(dp2314
g66
(dp2315
sg75
g71
sg68
(lp2316
g61
(g82
g63
NtRp2317
(dp2318
g66
(dp2319
g86
g87
ssg75
g2313
sg68
(lp2320
S'is_local'
p2321
asbag61
(g82
g63
NtRp2322
(dp2323
g66
(dp2324
g93
g94
ssg75
g2313
sg68
(lp2325
S':'
asbag61
(g82
g63
NtRp2326
(dp2327
g66
(dp2328
sg75
g2313
sg68
(lp2329
g61
(g62
g63
NtRp2330
(dp2331
g66
(dp2332
g74
I5
ssg75
g2326
sg68
(lp2333
g1790
asbasbasbag61
(g77
g63
NtRp2334
(dp2335
g66
(dp2336
sg75
g71
sg68
(lp2337
g61
(g82
g63
NtRp2338
(dp2339
g66
(dp2340
g86
g87
ssg75
g2334
sg68
(lp2341
S'is_restful'
p2342
asbag61
(g82
g63
NtRp2343
(dp2344
g66
(dp2345
g93
g94
ssg75
g2334
sg68
(lp2346
S':'
asbag61
(g82
g63
NtRp2347
(dp2348
g66
(dp2349
sg75
g2334
sg68
(lp2350
g61
(g62
g63
NtRp2351
(dp2352
g66
(dp2353
g74
I5
ssg75
g2347
sg68
(lp2354
g104
asbasbasbag61
(g77
g63
NtRp2355
(dp2356
g66
(dp2357
sg75
g71
sg68
(lp2358
g61
(g82
g63
NtRp2359
(dp2360
g66
(dp2361
g86
g87
ssg75
g2355
sg68
(lp2362
S'now'
p2363
asbag61
(g82
g63
NtRp2364
(dp2365
g66
(dp2366
g93
g94
ssg75
g2355
sg68
(lp2367
S':'
asbag61
(g82
g63
NtRp2368
(dp2369
g66
(dp2370
sg75
g2355
sg68
(lp2371
g61
(g62
g63
NtRp2372
(dp2373
g66
(dp2374
g74
I5
ssg75
g2368
sg68
(lp2375
S'datetime.datetime(2015, 4, 2, 20, 8, 56, 185810)'
p2376
asbasbasbag61
(g77
g63
NtRp2377
(dp2378
g66
(dp2379
sg75
g71
sg68
(lp2380
g61
(g82
g63
NtRp2381
(dp2382
g66
(dp2383
g86
g87
ssg75
g2377
sg68
(lp2384
S'post_vars'
p2385
asbag61
(g82
g63
NtRp2386
(dp2387
g66
(dp2388
g93
g94
ssg75
g2377
sg68
(lp2389
S':'
asbag61
(g82
g63
NtRp2390
(dp2391
g66
(dp2392
sg75
g2377
sg68
(lp2393
g61
(g62
g63
NtRp2394
(dp2395
g66
(dp2396
g74
I5
ssg75
g2390
sg68
(lp2397
g61
(g70
g63
NtRp2398
(dp2399
g66
(dp2400
g74
I4
ssg75
Nsg68
(lp2401
g61
(g77
g63
NtRp2402
(dp2403
g66
(dp2404
sg75
g2398
sg68
(lp2405
g61
(g82
g63
NtRp2406
(dp2407
g66
(dp2408
g86
g87
ssg75
g2402
sg68
(lp2409
S'address'
p2410
asbag61
(g82
g63
NtRp2411
(dp2412
g66
(dp2413
g93
g94
ssg75
g2402
sg68
(lp2414
S':'
asbag61
(g82
g63
NtRp2415
(dp2416
g66
(dp2417
sg75
g2402
sg68
(lp2418
g61
(g62
g63
NtRp2419
(dp2420
g66
(dp2421
g74
I4
ssg75
g2415
sg68
(lp2422
S''
asbasbasbag61
(g77
g63
NtRp2423
(dp2424
g66
(dp2425
sg75
g2398
sg68
(lp2426
g61
(g82
g63
NtRp2427
(dp2428
g66
(dp2429
g86
g87
ssg75
g2423
sg68
(lp2430
S'allergies'
p2431
asbag61
(g82
g63
NtRp2432
(dp2433
g66
(dp2434
g93
g94
ssg75
g2423
sg68
(lp2435
S':'
asbag61
(g82
g63
NtRp2436
(dp2437
g66
(dp2438
sg75
g2423
sg68
(lp2439
g61
(g62
g63
NtRp2440
(dp2441
g66
(dp2442
g74
I4
ssg75
g2436
sg68
(lp2443
S'ghghh'
p2444
asbasbasbag61
(g77
g63
NtRp2445
(dp2446
g66
(dp2447
sg75
g2398
sg68
(lp2448
g61
(g82
g63
NtRp2449
(dp2450
g66
(dp2451
g86
g87
ssg75
g2445
sg68
(lp2452
S'bloodgroup'
p2453
asbag61
(g82
g63
NtRp2454
(dp2455
g66
(dp2456
g93
g94
ssg75
g2445
sg68
(lp2457
S':'
asbag61
(g82
g63
NtRp2458
(dp2459
g66
(dp2460
sg75
g2445
sg68
(lp2461
g61
(g62
g63
NtRp2462
(dp2463
g66
(dp2464
g74
I4
ssg75
g2458
sg68
(lp2465
S'O-'
p2466
asbasbasbag61
(g77
g63
NtRp2467
(dp2468
g66
(dp2469
sg75
g2398
sg68
(lp2470
g61
(g82
g63
NtRp2471
(dp2472
g66
(dp2473
g86
g87
ssg75
g2467
sg68
(lp2474
S'dob'
p2475
asbag61
(g82
g63
NtRp2476
(dp2477
g66
(dp2478
g93
g94
ssg75
g2467
sg68
(lp2479
S':'
asbag61
(g82
g63
NtRp2480
(dp2481
g66
(dp2482
sg75
g2467
sg68
(lp2483
g61
(g62
g63
NtRp2484
(dp2485
g66
(dp2486
g74
I4
ssg75
g2480
sg68
(lp2487
S'2015-04-14'
p2488
asbasbasbag61
(g77
g63
NtRp2489
(dp2490
g66
(dp2491
sg75
g2398
sg68
(lp2492
g61
(g82
g63
NtRp2493
(dp2494
g66
(dp2495
g86
g87
ssg75
g2489
sg68
(lp2496
S'email'
p2497
asbag61
(g82
g63
NtRp2498
(dp2499
g66
(dp2500
g93
g94
ssg75
g2489
sg68
(lp2501
S':'
asbag61
(g82
g63
NtRp2502
(dp2503
g66
(dp2504
sg75
g2489
sg68
(lp2505
g61
(g62
g63
NtRp2506
(dp2507
g66
(dp2508
g74
I4
ssg75
g2502
sg68
(lp2509
S'a@b.cm'
p2510
asbasbasbag61
(g77
g63
NtRp2511
(dp2512
g66
(dp2513
sg75
g2398
sg68
(lp2514
g61
(g82
g63
NtRp2515
(dp2516
g66
(dp2517
g86
g87
ssg75
g2511
sg68
(lp2518
S'first_name'
p2519
asbag61
(g82
g63
NtRp2520
(dp2521
g66
(dp2522
g93
g94
ssg75
g2511
sg68
(lp2523
S':'
asbag61
(g82
g63
NtRp2524
(dp2525
g66
(dp2526
sg75
g2511
sg68
(lp2527
g61
(g62
g63
NtRp2528
(dp2529
g66
(dp2530
g74
I4
ssg75
g2524
sg68
(lp2531
S'a'
asbasbasbag61
(g77
g63
NtRp2532
(dp2533
g66
(dp2534
sg75
g2398
sg68
(lp2535
g61
(g82
g63
NtRp2536
(dp2537
g66
(dp2538
g86
g87
ssg75
g2532
sg68
(lp2539
S'last_name'
p2540
asbag61
(g82
g63
NtRp2541
(dp2542
g66
(dp2543
g93
g94
ssg75
g2532
sg68
(lp2544
S':'
asbag61
(g82
g63
NtRp2545
(dp2546
g66
(dp2547
sg75
g2532
sg68
(lp2548
g61
(g62
g63
NtRp2549
(dp2550
g66
(dp2551
g74
I4
ssg75
g2545
sg68
(lp2552
S'a'
asbasbasbag61
(g77
g63
NtRp2553
(dp2554
g66
(dp2555
sg75
g2398
sg68
(lp2556
g61
(g82
g63
NtRp2557
(dp2558
g66
(dp2559
g86
g87
ssg75
g2553
sg68
(lp2560
S'password'
p2561
asbag61
(g82
g63
NtRp2562
(dp2563
g66
(dp2564
g93
g94
ssg75
g2553
sg68
(lp2565
S':'
asbag61
(g82
g63
NtRp2566
(dp2567
g66
(dp2568
sg75
g2553
sg68
(lp2569
g61
(g62
g63
NtRp2570
(dp2571
g66
(dp2572
g74
I4
ssg75
g2566
sg68
(lp2573
S''
asbasbasbag61
(g77
g63
NtRp2574
(dp2575
g66
(dp2576
sg75
g2398
sg68
(lp2577
g61
(g82
g63
NtRp2578
(dp2579
g66
(dp2580
g86
g87
ssg75
g2574
sg68
(lp2581
S'phone'
p2582
asbag61
(g82
g63
NtRp2583
(dp2584
g66
(dp2585
g93
g94
ssg75
g2574
sg68
(lp2586
S':'
asbag61
(g82
g63
NtRp2587
(dp2588
g66
(dp2589
sg75
g2574
sg68
(lp2590
g61
(g62
g63
NtRp2591
(dp2592
g66
(dp2593
g74
I4
ssg75
g2587
sg68
(lp2594
S'67'
p2595
asbasbasbag61
(g77
g63
NtRp2596
(dp2597
g66
(dp2598
sg75
g2398
sg68
(lp2599
g61
(g82
g63
NtRp2600
(dp2601
g66
(dp2602
g86
g87
ssg75
g2596
sg68
(lp2603
S'sex'
p2604
asbag61
(g82
g63
NtRp2605
(dp2606
g66
(dp2607
g93
g94
ssg75
g2596
sg68
(lp2608
S':'
asbag61
(g82
g63
NtRp2609
(dp2610
g66
(dp2611
sg75
g2596
sg68
(lp2612
g61
(g62
g63
NtRp2613
(dp2614
g66
(dp2615
g74
I4
ssg75
g2609
sg68
(lp2616
S'F'
asbasbasbasbasbasbasbag61
(g77
g63
NtRp2617
(dp2618
g66
(dp2619
sg75
g71
sg68
(lp2620
g61
(g82
g63
NtRp2621
(dp2622
g66
(dp2623
g86
g87
ssg75
g2617
sg68
(lp2624
S'url'
p2625
asbag61
(g82
g63
NtRp2626
(dp2627
g66
(dp2628
g93
g94
ssg75
g2617
sg68
(lp2629
S':'
asbag61
(g82
g63
NtRp2630
(dp2631
g66
(dp2632
sg75
g2617
sg68
(lp2633
g61
(g62
g63
NtRp2634
(dp2635
g66
(dp2636
g74
I5
ssg75
g2630
sg68
(lp2637
S'/Aarogya/default/signin'
p2638
asbasbasbag61
(g77
g63
NtRp2639
(dp2640
g66
(dp2641
sg75
g71
sg68
(lp2642
g61
(g82
g63
NtRp2643
(dp2644
g66
(dp2645
g86
g87
ssg75
g2639
sg68
(lp2646
S'utcnow'
p2647
asbag61
(g82
g63
NtRp2648
(dp2649
g66
(dp2650
g93
g94
ssg75
g2639
sg68
(lp2651
S':'
asbag61
(g82
g63
NtRp2652
(dp2653
g66
(dp2654
sg75
g2639
sg68
(lp2655
g61
(g62
g63
NtRp2656
(dp2657
g66
(dp2658
g74
I5
ssg75
g2652
sg68
(lp2659
S'datetime.datetime(2015, 4, 2, 14, 38, 56, 185831)'
p2660
asbasbasbag61
(g77
g63
NtRp2661
(dp2662
g66
(dp2663
sg75
g71
sg68
(lp2664
g61
(g82
g63
NtRp2665
(dp2666
g66
(dp2667
g86
g87
ssg75
g2661
sg68
(lp2668
S'uuid'
p2669
asbag61
(g82
g63
NtRp2670
(dp2671
g66
(dp2672
g93
g94
ssg75
g2661
sg68
(lp2673
S':'
asbag61
(g82
g63
NtRp2674
(dp2675
g66
(dp2676
sg75
g2661
sg68
(lp2677
g61
(g62
g63
NtRp2678
(dp2679
g66
(dp2680
g74
I5
ssg75
g2674
sg68
(lp2681
S'Aarogya/127.0.0.1.2015-04-02.20-08-56.412fcddd-9e60-486c-831a-cbab489b5a07'
p2682
asbasbasbag61
(g77
g63
NtRp2683
(dp2684
g66
(dp2685
sg75
g71
sg68
(lp2686
g61
(g82
g63
NtRp2687
(dp2688
g66
(dp2689
g86
g87
ssg75
g2683
sg68
(lp2690
S'vars'
p2691
asbag61
(g82
g63
NtRp2692
(dp2693
g66
(dp2694
g93
g94
ssg75
g2683
sg68
(lp2695
S':'
asbag61
(g82
g63
NtRp2696
(dp2697
g66
(dp2698
sg75
g2683
sg68
(lp2699
g61
(g62
g63
NtRp2700
(dp2701
g66
(dp2702
g74
I5
ssg75
g2696
sg68
(lp2703
g61
(g70
g63
NtRp2704
(dp2705
g66
(dp2706
g74
I4
ssg75
Nsg68
(lp2707
g61
(g77
g63
NtRp2708
(dp2709
g66
(dp2710
sg75
g2704
sg68
(lp2711
g61
(g82
g63
NtRp2712
(dp2713
g66
(dp2714
g86
g87
ssg75
g2708
sg68
(lp2715
g2410
asbag61
(g82
g63
NtRp2716
(dp2717
g66
(dp2718
g93
g94
ssg75
g2708
sg68
(lp2719
S':'
asbag61
(g82
g63
NtRp2720
(dp2721
g66
(dp2722
sg75
g2708
sg68
(lp2723
g61
(g62
g63
NtRp2724
(dp2725
g66
(dp2726
g74
I4
ssg75
g2720
sg68
(lp2727
S''
asbasbasbag61
(g77
g63
NtRp2728
(dp2729
g66
(dp2730
sg75
g2704
sg68
(lp2731
g61
(g82
g63
NtRp2732
(dp2733
g66
(dp2734
g86
g87
ssg75
g2728
sg68
(lp2735
g2431
asbag61
(g82
g63
NtRp2736
(dp2737
g66
(dp2738
g93
g94
ssg75
g2728
sg68
(lp2739
S':'
asbag61
(g82
g63
NtRp2740
(dp2741
g66
(dp2742
sg75
g2728
sg68
(lp2743
g61
(g62
g63
NtRp2744
(dp2745
g66
(dp2746
g74
I4
ssg75
g2740
sg68
(lp2747
g2444
asbasbasbag61
(g77
g63
NtRp2748
(dp2749
g66
(dp2750
sg75
g2704
sg68
(lp2751
g61
(g82
g63
NtRp2752
(dp2753
g66
(dp2754
g86
g87
ssg75
g2748
sg68
(lp2755
g2453
asbag61
(g82
g63
NtRp2756
(dp2757
g66
(dp2758
g93
g94
ssg75
g2748
sg68
(lp2759
S':'
asbag61
(g82
g63
NtRp2760
(dp2761
g66
(dp2762
sg75
g2748
sg68
(lp2763
g61
(g62
g63
NtRp2764
(dp2765
g66
(dp2766
g74
I4
ssg75
g2760
sg68
(lp2767
g2466
asbasbasbag61
(g77
g63
NtRp2768
(dp2769
g66
(dp2770
sg75
g2704
sg68
(lp2771
g61
(g82
g63
NtRp2772
(dp2773
g66
(dp2774
g86
g87
ssg75
g2768
sg68
(lp2775
g2475
asbag61
(g82
g63
NtRp2776
(dp2777
g66
(dp2778
g93
g94
ssg75
g2768
sg68
(lp2779
S':'
asbag61
(g82
g63
NtRp2780
(dp2781
g66
(dp2782
sg75
g2768
sg68
(lp2783
g61
(g62
g63
NtRp2784
(dp2785
g66
(dp2786
g74
I4
ssg75
g2780
sg68
(lp2787
g2488
asbasbasbag61
(g77
g63
NtRp2788
(dp2789
g66
(dp2790
sg75
g2704
sg68
(lp2791
g61
(g82
g63
NtRp2792
(dp2793
g66
(dp2794
g86
g87
ssg75
g2788
sg68
(lp2795
g2497
asbag61
(g82
g63
NtRp2796
(dp2797
g66
(dp2798
g93
g94
ssg75
g2788
sg68
(lp2799
S':'
asbag61
(g82
g63
NtRp2800
(dp2801
g66
(dp2802
sg75
g2788
sg68
(lp2803
g61
(g62
g63
NtRp2804
(dp2805
g66
(dp2806
g74
I4
ssg75
g2800
sg68
(lp2807
g2510
asbasbasbag61
(g77
g63
NtRp2808
(dp2809
g66
(dp2810
sg75
g2704
sg68
(lp2811
g61
(g82
g63
NtRp2812
(dp2813
g66
(dp2814
g86
g87
ssg75
g2808
sg68
(lp2815
g2519
asbag61
(g82
g63
NtRp2816
(dp2817
g66
(dp2818
g93
g94
ssg75
g2808
sg68
(lp2819
S':'
asbag61
(g82
g63
NtRp2820
(dp2821
g66
(dp2822
sg75
g2808
sg68
(lp2823
g61
(g62
g63
NtRp2824
(dp2825
g66
(dp2826
g74
I4
ssg75
g2820
sg68
(lp2827
S'a'
asbasbasbag61
(g77
g63
NtRp2828
(dp2829
g66
(dp2830
sg75
g2704
sg68
(lp2831
g61
(g82
g63
NtRp2832
(dp2833
g66
(dp2834
g86
g87
ssg75
g2828
sg68
(lp2835
g2540
asbag61
(g82
g63
NtRp2836
(dp2837
g66
(dp2838
g93
g94
ssg75
g2828
sg68
(lp2839
S':'
asbag61
(g82
g63
NtRp2840
(dp2841
g66
(dp2842
sg75
g2828
sg68
(lp2843
g61
(g62
g63
NtRp2844
(dp2845
g66
(dp2846
g74
I4
ssg75
g2840
sg68
(lp2847
S'a'
asbasbasbag61
(g77
g63
NtRp2848
(dp2849
g66
(dp2850
sg75
g2704
sg68
(lp2851
g61
(g82
g63
NtRp2852
(dp2853
g66
(dp2854
g86
g87
ssg75
g2848
sg68
(lp2855
g2561
asbag61
(g82
g63
NtRp2856
(dp2857
g66
(dp2858
g93
g94
ssg75
g2848
sg68
(lp2859
S':'
asbag61
(g82
g63
NtRp2860
(dp2861
g66
(dp2862
sg75
g2848
sg68
(lp2863
g61
(g62
g63
NtRp2864
(dp2865
g66
(dp2866
g74
I4
ssg75
g2860
sg68
(lp2867
S''
asbasbasbag61
(g77
g63
NtRp2868
(dp2869
g66
(dp2870
sg75
g2704
sg68
(lp2871
g61
(g82
g63
NtRp2872
(dp2873
g66
(dp2874
g86
g87
ssg75
g2868
sg68
(lp2875
g2582
asbag61
(g82
g63
NtRp2876
(dp2877
g66
(dp2878
g93
g94
ssg75
g2868
sg68
(lp2879
S':'
asbag61
(g82
g63
NtRp2880
(dp2881
g66
(dp2882
sg75
g2868
sg68
(lp2883
g61
(g62
g63
NtRp2884
(dp2885
g66
(dp2886
g74
I4
ssg75
g2880
sg68
(lp2887
g2595
asbasbasbag61
(g77
g63
NtRp2888
(dp2889
g66
(dp2890
sg75
g2704
sg68
(lp2891
g61
(g82
g63
NtRp2892
(dp2893
g66
(dp2894
g86
g87
ssg75
g2888
sg68
(lp2895
g2604
asbag61
(g82
g63
NtRp2896
(dp2897
g66
(dp2898
g93
g94
ssg75
g2888
sg68
(lp2899
S':'
asbag61
(g82
g63
NtRp2900
(dp2901
g66
(dp2902
sg75
g2888
sg68
(lp2903
g61
(g62
g63
NtRp2904
(dp2905
g66
(dp2906
g74
I4
ssg75
g2900
sg68
(lp2907
S'F'
asbasbasbasbasbasbasbag61
(g77
g63
NtRp2908
(dp2909
g66
(dp2910
sg75
g71
sg68
(lp2911
g61
(g82
g63
NtRp2912
(dp2913
g66
(dp2914
g86
g87
ssg75
g2908
sg68
(lp2915
S'wsgi'
p2916
asbag61
(g82
g63
NtRp2917
(dp2918
g66
(dp2919
g93
g94
ssg75
g2908
sg68
(lp2920
S':'
asbag61
(g82
g63
NtRp2921
(dp2922
g66
(dp2923
sg75
g2908
sg68
(lp2924
g61
(g62
g63
NtRp2925
(dp2926
g66
(dp2927
g74
I5
ssg75
g2921
sg68
(lp2928
g61
(g70
g63
NtRp2929
(dp2930
g66
(dp2931
g74
I4
ssg75
Nsg68
(lp2932
g61
(g77
g63
NtRp2933
(dp2934
g66
(dp2935
sg75
g2929
sg68
(lp2936
g61
(g82
g63
NtRp2937
(dp2938
g66
(dp2939
g86
g87
ssg75
g2933
sg68
(lp2940
S'environ'
p2941
asbag61
(g82
g63
NtRp2942
(dp2943
g66
(dp2944
g93
g94
ssg75
g2933
sg68
(lp2945
S':'
asbag61
(g82
g63
NtRp2946
(dp2947
g66
(dp2948
sg75
g2933
sg68
(lp2949
g61
(g62
g63
NtRp2950
(dp2951
g66
(dp2952
g74
I4
ssg75
g2946
sg68
(lp2953
g61
(g70
g63
NtRp2954
(dp2955
g66
(dp2956
g74
I3
ssg75
Nsg68
(lp2957
g61
(g77
g63
NtRp2958
(dp2959
g66
(dp2960
sg75
g2954
sg68
(lp2961
g61
(g82
g63
NtRp2962
(dp2963
g66
(dp2964
g86
g87
ssg75
g2958
sg68
(lp2965
S'CONTENT_LENGTH'
p2966
asbag61
(g82
g63
NtRp2967
(dp2968
g66
(dp2969
g93
g94
ssg75
g2958
sg68
(lp2970
S':'
asbag61
(g82
g63
NtRp2971
(dp2972
g66
(dp2973
sg75
g2958
sg68
(lp2974
g61
(g62
g63
NtRp2975
(dp2976
g66
(dp2977
g74
I3
ssg75
g2971
sg68
(lp2978
g942
asbasbasbag61
(g77
g63
NtRp2979
(dp2980
g66
(dp2981
sg75
g2954
sg68
(lp2982
g61
(g82
g63
NtRp2983
(dp2984
g66
(dp2985
g86
g87
ssg75
g2979
sg68
(lp2986
S'CONTENT_TYPE'
p2987
asbag61
(g82
g63
NtRp2988
(dp2989
g66
(dp2990
g93
g94
ssg75
g2979
sg68
(lp2991
S':'
asbag61
(g82
g63
NtRp2992
(dp2993
g66
(dp2994
sg75
g2979
sg68
(lp2995
g61
(g62
g63
NtRp2996
(dp2997
g66
(dp2998
g74
I3
ssg75
g2992
sg68
(lp2999
g964
asbasbasbag61
(g77
g63
NtRp3000
(dp3001
g66
(dp3002
sg75
g2954
sg68
(lp3003
g61
(g82
g63
NtRp3004
(dp3005
g66
(dp3006
g86
g87
ssg75
g3000
sg68
(lp3007
S'HTTP_ACCEPT'
p3008
asbag61
(g82
g63
NtRp3009
(dp3010
g66
(dp3011
g93
g94
ssg75
g3000
sg68
(lp3012
S':'
asbag61
(g82
g63
NtRp3013
(dp3014
g66
(dp3015
sg75
g3000
sg68
(lp3016
g61
(g62
g63
NtRp3017
(dp3018
g66
(dp3019
g74
I3
ssg75
g3013
sg68
(lp3020
g1051
asbasbasbag61
(g77
g63
NtRp3021
(dp3022
g66
(dp3023
sg75
g2954
sg68
(lp3024
g61
(g82
g63
NtRp3025
(dp3026
g66
(dp3027
g86
g87
ssg75
g3021
sg68
(lp3028
S'HTTP_ACCEPT_ENCODING'
p3029
asbag61
(g82
g63
NtRp3030
(dp3031
g66
(dp3032
g93
g94
ssg75
g3021
sg68
(lp3033
S':'
asbag61
(g82
g63
NtRp3034
(dp3035
g66
(dp3036
sg75
g3021
sg68
(lp3037
g61
(g62
g63
NtRp3038
(dp3039
g66
(dp3040
g74
I3
ssg75
g3034
sg68
(lp3041
g1073
asbasbasbag61
(g77
g63
NtRp3042
(dp3043
g66
(dp3044
sg75
g2954
sg68
(lp3045
g61
(g82
g63
NtRp3046
(dp3047
g66
(dp3048
g86
g87
ssg75
g3042
sg68
(lp3049
S'HTTP_ACCEPT_LANGUAGE'
p3050
asbag61
(g82
g63
NtRp3051
(dp3052
g66
(dp3053
g93
g94
ssg75
g3042
sg68
(lp3054
S':'
asbag61
(g82
g63
NtRp3055
(dp3056
g66
(dp3057
sg75
g3042
sg68
(lp3058
g61
(g62
g63
NtRp3059
(dp3060
g66
(dp3061
g74
I3
ssg75
g3055
sg68
(lp3062
g1095
asbasbasbag61
(g77
g63
NtRp3063
(dp3064
g66
(dp3065
sg75
g2954
sg68
(lp3066
g61
(g82
g63
NtRp3067
(dp3068
g66
(dp3069
g86
g87
ssg75
g3063
sg68
(lp3070
S'HTTP_CACHE_CONTROL'
p3071
asbag61
(g82
g63
NtRp3072
(dp3073
g66
(dp3074
g93
g94
ssg75
g3063
sg68
(lp3075
S':'
asbag61
(g82
g63
NtRp3076
(dp3077
g66
(dp3078
sg75
g3063
sg68
(lp3079
g61
(g62
g63
NtRp3080
(dp3081
g66
(dp3082
g74
I3
ssg75
g3076
sg68
(lp3083
g1117
asbasbasbag61
(g77
g63
NtRp3084
(dp3085
g66
(dp3086
sg75
g2954
sg68
(lp3087
g61
(g82
g63
NtRp3088
(dp3089
g66
(dp3090
g86
g87
ssg75
g3084
sg68
(lp3091
S'HTTP_CONNECTION'
p3092
asbag61
(g82
g63
NtRp3093
(dp3094
g66
(dp3095
g93
g94
ssg75
g3084
sg68
(lp3096
S':'
asbag61
(g82
g63
NtRp3097
(dp3098
g66
(dp3099
sg75
g3084
sg68
(lp3100
g61
(g62
g63
NtRp3101
(dp3102
g66
(dp3103
g74
I3
ssg75
g3097
sg68
(lp3104
g1139
asbasbasbag61
(g77
g63
NtRp3105
(dp3106
g66
(dp3107
sg75
g2954
sg68
(lp3108
g61
(g82
g63
NtRp3109
(dp3110
g66
(dp3111
g86
g87
ssg75
g3105
sg68
(lp3112
S'HTTP_CONTENT_LENGTH'
p3113
asbag61
(g82
g63
NtRp3114
(dp3115
g66
(dp3116
g93
g94
ssg75
g3105
sg68
(lp3117
S':'
asbag61
(g82
g63
NtRp3118
(dp3119
g66
(dp3120
sg75
g3105
sg68
(lp3121
g61
(g62
g63
NtRp3122
(dp3123
g66
(dp3124
g74
I3
ssg75
g3118
sg68
(lp3125
g942
asbasbasbag61
(g77
g63
NtRp3126
(dp3127
g66
(dp3128
sg75
g2954
sg68
(lp3129
g61
(g82
g63
NtRp3130
(dp3131
g66
(dp3132
g86
g87
ssg75
g3126
sg68
(lp3133
S'HTTP_CONTENT_TYPE'
p3134
asbag61
(g82
g63
NtRp3135
(dp3136
g66
(dp3137
g93
g94
ssg75
g3126
sg68
(lp3138
S':'
asbag61
(g82
g63
NtRp3139
(dp3140
g66
(dp3141
sg75
g3126
sg68
(lp3142
g61
(g62
g63
NtRp3143
(dp3144
g66
(dp3145
g74
I3
ssg75
g3139
sg68
(lp3146
g964
asbasbasbag61
(g77
g63
NtRp3147
(dp3148
g66
(dp3149
sg75
g2954
sg68
(lp3150
g61
(g82
g63
NtRp3151
(dp3152
g66
(dp3153
g86
g87
ssg75
g3147
sg68
(lp3154
S'HTTP_COOKIE'
p3155
asbag61
(g82
g63
NtRp3156
(dp3157
g66
(dp3158
g93
g94
ssg75
g3147
sg68
(lp3159
S':'
asbag61
(g82
g63
NtRp3160
(dp3161
g66
(dp3162
sg75
g3147
sg68
(lp3163
g61
(g62
g63
NtRp3164
(dp3165
g66
(dp3166
g74
I3
ssg75
g3160
sg68
(lp3167
g1203
asbasbasbag61
(g77
g63
NtRp3168
(dp3169
g66
(dp3170
sg75
g2954
sg68
(lp3171
g61
(g82
g63
NtRp3172
(dp3173
g66
(dp3174
g86
g87
ssg75
g3168
sg68
(lp3175
S'HTTP_HOST'
p3176
asbag61
(g82
g63
NtRp3177
(dp3178
g66
(dp3179
g93
g94
ssg75
g3168
sg68
(lp3180
S':'
asbag61
(g82
g63
NtRp3181
(dp3182
g66
(dp3183
sg75
g3168
sg68
(lp3184
g61
(g62
g63
NtRp3185
(dp3186
g66
(dp3187
g74
I3
ssg75
g3181
sg68
(lp3188
g1225
asbasbasbag61
(g77
g63
NtRp3189
(dp3190
g66
(dp3191
sg75
g2954
sg68
(lp3192
g61
(g82
g63
NtRp3193
(dp3194
g66
(dp3195
g86
g87
ssg75
g3189
sg68
(lp3196
S'HTTP_ORIGIN'
p3197
asbag61
(g82
g63
NtRp3198
(dp3199
g66
(dp3200
g93
g94
ssg75
g3189
sg68
(lp3201
S':'
asbag61
(g82
g63
NtRp3202
(dp3203
g66
(dp3204
sg75
g3189
sg68
(lp3205
g61
(g62
g63
NtRp3206
(dp3207
g66
(dp3208
g74
I3
ssg75
g3202
sg68
(lp3209
g1247
asbasbasbag61
(g77
g63
NtRp3210
(dp3211
g66
(dp3212
sg75
g2954
sg68
(lp3213
g61
(g82
g63
NtRp3214
(dp3215
g66
(dp3216
g86
g87
ssg75
g3210
sg68
(lp3217
S'HTTP_REFERER'
p3218
asbag61
(g82
g63
NtRp3219
(dp3220
g66
(dp3221
g93
g94
ssg75
g3210
sg68
(lp3222
S':'
asbag61
(g82
g63
NtRp3223
(dp3224
g66
(dp3225
sg75
g3210
sg68
(lp3226
g61
(g62
g63
NtRp3227
(dp3228
g66
(dp3229
g74
I3
ssg75
g3223
sg68
(lp3230
g1269
asbasbasbag61
(g77
g63
NtRp3231
(dp3232
g66
(dp3233
sg75
g2954
sg68
(lp3234
g61
(g82
g63
NtRp3235
(dp3236
g66
(dp3237
g86
g87
ssg75
g3231
sg68
(lp3238
S'HTTP_USER_AGENT'
p3239
asbag61
(g82
g63
NtRp3240
(dp3241
g66
(dp3242
g93
g94
ssg75
g3231
sg68
(lp3243
S':'
asbag61
(g82
g63
NtRp3244
(dp3245
g66
(dp3246
sg75
g3231
sg68
(lp3247
g61
(g62
g63
NtRp3248
(dp3249
g66
(dp3250
g74
I3
ssg75
g3244
sg68
(lp3251
g1291
asbasbasbag61
(g77
g63
NtRp3252
(dp3253
g66
(dp3254
sg75
g2954
sg68
(lp3255
g61
(g82
g63
NtRp3256
(dp3257
g66
(dp3258
g86
g87
ssg75
g3252
sg68
(lp3259
S'PATH_INFO'
p3260
asbag61
(g82
g63
NtRp3261
(dp3262
g66
(dp3263
g93
g94
ssg75
g3252
sg68
(lp3264
S':'
asbag61
(g82
g63
NtRp3265
(dp3266
g66
(dp3267
sg75
g3252
sg68
(lp3268
g61
(g62
g63
NtRp3269
(dp3270
g66
(dp3271
g74
I3
ssg75
g3265
sg68
(lp3272
g1355
asbasbasbag61
(g77
g63
NtRp3273
(dp3274
g66
(dp3275
sg75
g2954
sg68
(lp3276
g61
(g82
g63
NtRp3277
(dp3278
g66
(dp3279
g86
g87
ssg75
g3273
sg68
(lp3280
S'QUERY_STRING'
p3281
asbag61
(g82
g63
NtRp3282
(dp3283
g66
(dp3284
g93
g94
ssg75
g3273
sg68
(lp3285
S':'
asbag61
(g82
g63
NtRp3286
(dp3287
g66
(dp3288
sg75
g3273
sg68
(lp3289
g61
(g62
g63
NtRp3290
(dp3291
g66
(dp3292
g74
I3
ssg75
g3286
sg68
(lp3293
S''
asbasbasbag61
(g77
g63
NtRp3294
(dp3295
g66
(dp3296
sg75
g2954
sg68
(lp3297
g61
(g82
g63
NtRp3298
(dp3299
g66
(dp3300
g86
g87
ssg75
g3294
sg68
(lp3301
S'REMOTE_ADDR'
p3302
asbag61
(g82
g63
NtRp3303
(dp3304
g66
(dp3305
g93
g94
ssg75
g3294
sg68
(lp3306
S':'
asbag61
(g82
g63
NtRp3307
(dp3308
g66
(dp3309
sg75
g3294
sg68
(lp3310
g61
(g62
g63
NtRp3311
(dp3312
g66
(dp3313
g74
I3
ssg75
g3307
sg68
(lp3314
g194
asbasbasbag61
(g77
g63
NtRp3315
(dp3316
g66
(dp3317
sg75
g2954
sg68
(lp3318
g61
(g82
g63
NtRp3319
(dp3320
g66
(dp3321
g86
g87
ssg75
g3315
sg68
(lp3322
S'REMOTE_PORT'
p3323
asbag61
(g82
g63
NtRp3324
(dp3325
g66
(dp3326
g93
g94
ssg75
g3315
sg68
(lp3327
S':'
asbag61
(g82
g63
NtRp3328
(dp3329
g66
(dp3330
sg75
g3315
sg68
(lp3331
g61
(g62
g63
NtRp3332
(dp3333
g66
(dp3334
g74
I3
ssg75
g3328
sg68
(lp3335
g1419
asbasbasbag61
(g77
g63
NtRp3336
(dp3337
g66
(dp3338
sg75
g2954
sg68
(lp3339
g61
(g82
g63
NtRp3340
(dp3341
g66
(dp3342
g86
g87
ssg75
g3336
sg68
(lp3343
S'REQUEST_METHOD'
p3344
asbag61
(g82
g63
NtRp3345
(dp3346
g66
(dp3347
g93
g94
ssg75
g3336
sg68
(lp3348
S':'
asbag61
(g82
g63
NtRp3349
(dp3350
g66
(dp3351
sg75
g3336
sg68
(lp3352
g61
(g62
g63
NtRp3353
(dp3354
g66
(dp3355
g74
I3
ssg75
g3349
sg68
(lp3356
g1441
asbasbasbag61
(g77
g63
NtRp3357
(dp3358
g66
(dp3359
sg75
g2954
sg68
(lp3360
g61
(g82
g63
NtRp3361
(dp3362
g66
(dp3363
g86
g87
ssg75
g3357
sg68
(lp3364
S'SCRIPT_NAME'
p3365
asbag61
(g82
g63
NtRp3366
(dp3367
g66
(dp3368
g93
g94
ssg75
g3357
sg68
(lp3369
S':'
asbag61
(g82
g63
NtRp3370
(dp3371
g66
(dp3372
sg75
g3357
sg68
(lp3373
g61
(g62
g63
NtRp3374
(dp3375
g66
(dp3376
g74
I3
ssg75
g3370
sg68
(lp3377
S''
asbasbasbag61
(g77
g63
NtRp3378
(dp3379
g66
(dp3380
sg75
g2954
sg68
(lp3381
g61
(g82
g63
NtRp3382
(dp3383
g66
(dp3384
g86
g87
ssg75
g3378
sg68
(lp3385
S'SERVER_NAME'
p3386
asbag61
(g82
g63
NtRp3387
(dp3388
g66
(dp3389
g93
g94
ssg75
g3378
sg68
(lp3390
S':'
asbag61
(g82
g63
NtRp3391
(dp3392
g66
(dp3393
sg75
g3378
sg68
(lp3394
g61
(g62
g63
NtRp3395
(dp3396
g66
(dp3397
g74
I3
ssg75
g3391
sg68
(lp3398
g1484
asbasbasbag61
(g77
g63
NtRp3399
(dp3400
g66
(dp3401
sg75
g2954
sg68
(lp3402
g61
(g82
g63
NtRp3403
(dp3404
g66
(dp3405
g86
g87
ssg75
g3399
sg68
(lp3406
S'SERVER_PORT'
p3407
asbag61
(g82
g63
NtRp3408
(dp3409
g66
(dp3410
g93
g94
ssg75
g3399
sg68
(lp3411
S':'
asbag61
(g82
g63
NtRp3412
(dp3413
g66
(dp3414
sg75
g3399
sg68
(lp3415
g61
(g62
g63
NtRp3416
(dp3417
g66
(dp3418
g74
I3
ssg75
g3412
sg68
(lp3419
g1506
asbasbasbag61
(g77
g63
NtRp3420
(dp3421
g66
(dp3422
sg75
g2954
sg68
(lp3423
g61
(g82
g63
NtRp3424
(dp3425
g66
(dp3426
g86
g87
ssg75
g3420
sg68
(lp3427
S'SERVER_PROTOCOL'
p3428
asbag61
(g82
g63
NtRp3429
(dp3430
g66
(dp3431
g93
g94
ssg75
g3420
sg68
(lp3432
S':'
asbag61
(g82
g63
NtRp3433
(dp3434
g66
(dp3435
sg75
g3420
sg68
(lp3436
g61
(g62
g63
NtRp3437
(dp3438
g66
(dp3439
g74
I3
ssg75
g3433
sg68
(lp3440
g1528
asbasbasbag61
(g77
g63
NtRp3441
(dp3442
g66
(dp3443
sg75
g2954
sg68
(lp3444
g61
(g82
g63
NtRp3445
(dp3446
g66
(dp3447
g86
g87
ssg75
g3441
sg68
(lp3448
S'SERVER_SOFTWARE'
p3449
asbag61
(g82
g63
NtRp3450
(dp3451
g66
(dp3452
g93
g94
ssg75
g3441
sg68
(lp3453
S':'
asbag61
(g82
g63
NtRp3454
(dp3455
g66
(dp3456
sg75
g3441
sg68
(lp3457
g61
(g62
g63
NtRp3458
(dp3459
g66
(dp3460
g74
I3
ssg75
g3454
sg68
(lp3461
g1550
asbasbasbag61
(g77
g63
NtRp3462
(dp3463
g66
(dp3464
sg75
g2954
sg68
(lp3465
g61
(g82
g63
NtRp3466
(dp3467
g66
(dp3468
g86
g87
ssg75
g3462
sg68
(lp3469
S'wsgi.errors'
p3470
asbag61
(g82
g63
NtRp3471
(dp3472
g66
(dp3473
g93
g94
ssg75
g3462
sg68
(lp3474
S':'
asbag61
(g82
g63
NtRp3475
(dp3476
g66
(dp3477
sg75
g3462
sg68
(lp3478
g61
(g62
g63
NtRp3479
(dp3480
g66
(dp3481
g74
I3
ssg75
g3475
sg68
(lp3482
S"<open file '<stderr>', mode 'w' at 0x7f81385401e0>"
p3483
asbasbasbag61
(g77
g63
NtRp3484
(dp3485
g66
(dp3486
sg75
g2954
sg68
(lp3487
g61
(g82
g63
NtRp3488
(dp3489
g66
(dp3490
g86
g87
ssg75
g3484
sg68
(lp3491
S'wsgi.file_wrapper'
p3492
asbag61
(g82
g63
NtRp3493
(dp3494
g66
(dp3495
g93
g94
ssg75
g3484
sg68
(lp3496
S':'
asbag61
(g82
g63
NtRp3497
(dp3498
g66
(dp3499
sg75
g3484
sg68
(lp3500
g61
(g62
g63
NtRp3501
(dp3502
g66
(dp3503
g74
I3
ssg75
g3497
sg68
(lp3504
S'<class wsgiref.util.FileWrapper at 0x7f8134499bb0>'
p3505
asbasbasbag61
(g77
g63
NtRp3506
(dp3507
g66
(dp3508
sg75
g2954
sg68
(lp3509
g61
(g82
g63
NtRp3510
(dp3511
g66
(dp3512
g86
g87
ssg75
g3506
sg68
(lp3513
S'wsgi.input'
p3514
asbag61
(g82
g63
NtRp3515
(dp3516
g66
(dp3517
g93
g94
ssg75
g3506
sg68
(lp3518
S':'
asbag61
(g82
g63
NtRp3519
(dp3520
g66
(dp3521
sg75
g3506
sg68
(lp3522
g61
(g62
g63
NtRp3523
(dp3524
g66
(dp3525
g74
I3
ssg75
g3519
sg68
(lp3526
S"<open file '<fdopen>', mode 'w+b' at 0x7f8133bf14b0>"
p3527
asbasbasbag61
(g77
g63
NtRp3528
(dp3529
g66
(dp3530
sg75
g2954
sg68
(lp3531
g61
(g82
g63
NtRp3532
(dp3533
g66
(dp3534
g86
g87
ssg75
g3528
sg68
(lp3535
S'wsgi.multiprocess'
p3536
asbag61
(g82
g63
NtRp3537
(dp3538
g66
(dp3539
g93
g94
ssg75
g3528
sg68
(lp3540
S':'
asbag61
(g82
g63
NtRp3541
(dp3542
g66
(dp3543
sg75
g3528
sg68
(lp3544
g61
(g62
g63
NtRp3545
(dp3546
g66
(dp3547
g74
I3
ssg75
g3541
sg68
(lp3548
g104
asbasbasbag61
(g77
g63
NtRp3549
(dp3550
g66
(dp3551
sg75
g2954
sg68
(lp3552
g61
(g82
g63
NtRp3553
(dp3554
g66
(dp3555
g86
g87
ssg75
g3549
sg68
(lp3556
S'wsgi.multithread'
p3557
asbag61
(g82
g63
NtRp3558
(dp3559
g66
(dp3560
g93
g94
ssg75
g3549
sg68
(lp3561
S':'
asbag61
(g82
g63
NtRp3562
(dp3563
g66
(dp3564
sg75
g3549
sg68
(lp3565
g61
(g62
g63
NtRp3566
(dp3567
g66
(dp3568
g74
I3
ssg75
g3562
sg68
(lp3569
g1790
asbasbasbag61
(g77
g63
NtRp3570
(dp3571
g66
(dp3572
sg75
g2954
sg68
(lp3573
g61
(g82
g63
NtRp3574
(dp3575
g66
(dp3576
g86
g87
ssg75
g3570
sg68
(lp3577
S'wsgi.run_once'
p3578
asbag61
(g82
g63
NtRp3579
(dp3580
g66
(dp3581
g93
g94
ssg75
g3570
sg68
(lp3582
S':'
asbag61
(g82
g63
NtRp3583
(dp3584
g66
(dp3585
sg75
g3570
sg68
(lp3586
g61
(g62
g63
NtRp3587
(dp3588
g66
(dp3589
g74
I3
ssg75
g3583
sg68
(lp3590
g104
asbasbasbag61
(g77
g63
NtRp3591
(dp3592
g66
(dp3593
sg75
g2954
sg68
(lp3594
g61
(g82
g63
NtRp3595
(dp3596
g66
(dp3597
g86
g87
ssg75
g3591
sg68
(lp3598
S'wsgi.url_scheme'
p3599
asbag61
(g82
g63
NtRp3600
(dp3601
g66
(dp3602
g93
g94
ssg75
g3591
sg68
(lp3603
S':'
asbag61
(g82
g63
NtRp3604
(dp3605
g66
(dp3606
sg75
g3591
sg68
(lp3607
g61
(g62
g63
NtRp3608
(dp3609
g66
(dp3610
g74
I3
ssg75
g3604
sg68
(lp3611
g1833
asbasbasbag61
(g77
g63
NtRp3612
(dp3613
g66
(dp3614
sg75
g2954
sg68
(lp3615
g61
(g82
g63
NtRp3616
(dp3617
g66
(dp3618
g86
g87
ssg75
g3612
sg68
(lp3619
S'wsgi.version'
p3620
asbag61
(g82
g63
NtRp3621
(dp3622
g66
(dp3623
g93
g94
ssg75
g3612
sg68
(lp3624
S':'
asbag61
(g82
g63
NtRp3625
(dp3626
g66
(dp3627
sg75
g3612
sg68
(lp3628
g61
(g62
g63
NtRp3629
(dp3630
g66
(dp3631
g74
I3
ssg75
g3625
sg68
(lp3632
S'1'
asbasbasbasbasbasbasbasbasbasbasbasbasbsS'frames'
p3633
(lp3634
(dp3635
S'file'
p3636
S'/usr/lib/pymodules/python2.7/gluon/restricted.py'
p3637
sS'dump'
p3638
(dp3639
S'environment'
p3640
S"{'A': <class 'gluon.html.A'>, 'Auth': <class 'gluon.tools.Auth'>, 'B': <class 'gluon.html.B'>, 'BEAUTIFY': <class 'gluon.html.BEAUTIFY'>, 'BODY': <class 'gluon.html.BODY'>, 'BR': <class 'gluon.html.BR'>, 'BUTTON': <class 'gluon.html.BUTTON'>, 'CAT': <class 'gluon.html.CAT'>, 'CENTER': <class 'gluon.html.CENTER'>, 'CLEANUP': <class 'gluon.validators.CLEANUP'>, ...}"
p3641
sS'ccode'
p3642
S'<code object <module> at 0x7f811813cc30, file "/...cations/Aarogya/controllers/default.py", line 12>'
p3643
ssS'lnum'
p3644
I205
sS'lines'
p3645
(dp3646
I200
S'    try:'
p3647
sI201
S'        if type(code) == types.CodeType:'
p3648
sI202
S'            ccode = code'
p3649
sI203
S'        else:'
p3650
sI204
S'            ccode = compile2(code,layer)'
p3651
sI205
S'        exec ccode in environment'
p3652
sI206
S'    except HTTP:'
p3653
sI207
S'        raise'
p3654
sI208
S'    except RestrictedError:'
p3655
sI209
S'        # do not encapsulate (obfuscate) the original RestrictedError'
p3656
ssS'call'
p3657
S"(code='# -*- coding: utf-8 -*-\\n# this file is released ...m=form)\\n\\nresponse._vars=response._caller(signin)\\n', environment={'A': <class 'gluon.html.A'>, 'Auth': <class 'gluon.tools.Auth'>, 'B': <class 'gluon.html.B'>, 'BEAUTIFY': <class 'gluon.html.BEAUTIFY'>, 'BODY': <class 'gluon.html.BODY'>, 'BR': <class 'gluon.html.BR'>, 'BUTTON': <class 'gluon.html.BUTTON'>, 'CAT': <class 'gluon.html.CAT'>, 'CENTER': <class 'gluon.html.CENTER'>, 'CLEANUP': <class 'gluon.validators.CLEANUP'>, ...}, layer='/home/rehas/web2py/applications/Aarogya/controllers/default.py')"
p3658
sS'func'
p3659
S'restricted'
p3660
sa(dp3661
g3636
S'/home/rehas/web2py/applications/Aarogya/controllers/default.py'
p3662
sg3638
(dp3663
sg3644
I101
sg3645
(dp3664
I96
S''
sI97
S'    elif form.errors:'
p3665
sI98
S"        response.flash='errors'"
p3666
sI99
S'    return dict(form=form)'
p3667
sI90
S''
sI91
S"    Field('password', 'password', length=512, readable=False, label='Password')"
p3668
sI92
S'    )'
p3669
sI93
S'    if form.process().accepted:'
p3670
sI94
S'        db.patient.insert(**db.patient._filter_fields(form.vars))'
p3671
sI95
S"        response.flash='accepted!'"
p3672
ssg3657
S'()'
p3673
sg3659
S'<module>'
p3674
sa(dp3675
g3636
S'/usr/lib/pymodules/python2.7/gluon/globals.py'
p3676
sg3638
(dp3677
S'self'
p3678
S'undefined'
p3679
sS'f'
S'<function signin>'
p3680
ssg3644
I173
sg3645
(dp3681
I168
S'        self.menu = []             # used by the default view layout'
p3682
sI169
S'        self.files = []            # used by web2py_ajax.html'
p3683
sI170
S'        self.generic_patterns = [] # patterns to allow generic views'
p3684
sI171
S"        self.delimiters = ('{{','}}')"
p3685
sI172
S'        self._vars = None'
p3686
sI173
S'        self._caller = lambda f: f()'
p3687
sI174
S'        self._view_environment = None'
p3688
sI175
S'        self._custom_commit = None'
p3689
sI176
S'        self._custom_rollback = None'
p3690
sI177
S''
ssg3657
S'(f=<function signin>)'
p3691
sg3659
S'<lambda>'
p3692
sa(dp3693
g3636
S'/home/rehas/web2py/applications/Aarogya/controllers/default.py'
p3694
sg3638
(dp3695
S'form.vars'
p3696
S"<Storage {'first_name': 'a', 'last_name': 'a', '...ess': '', 'bloodgroup': 'O-', 'email': 'a@b.cm'}>"
p3697
sS'form'
p3698
S'<gluon.sqlhtml.SQLFORM object>'
p3699
sS'db.patient._filter_fields'
p3700
S"<bound method Table._filter_fields of <Table {'l...d': <gluon.dal.Field object at 0x7f8133915f90>}>>"
p3701
sS'db.patient'
p3702
S"<Table {'last_name': <gluon.dal.Field object at ...id': <gluon.dal.Field object at 0x7f8133915f90>}>"
p3703
sS'global db'
p3704
S"<DAL {'auth_event': <Table {'origin': <gluon.dal...': <gluon.dal.Field object at 0x7f80de2ac090>}>}>"
p3705
sS'db.patient.insert'
p3706
S"<bound method Table.insert of <Table {'last_name...d': <gluon.dal.Field object at 0x7f8133915f90>}>>"
p3707
ssg3644
I94
sg3645
(dp3708
I96
S''
sI97
S'    elif form.errors:'
p3709
sI98
S"        response.flash='errors'"
p3710
sI89
S"    Field('address', length=256, default=''),"
p3711
sI90
S''
sI91
S"    Field('password', 'password', length=512, readable=False, label='Password')"
p3712
sI92
S'    )'
p3713
sI93
S'    if form.process().accepted:'
p3714
sI94
S'        db.patient.insert(**db.patient._filter_fields(form.vars))'
p3715
sI95
S"        response.flash='accepted!'"
p3716
ssg3657
S'()'
p3717
sg3659
S'signin'
p3718
sa(dp3719
g3636
S'/usr/lib/pymodules/python2.7/gluon/dal.py'
p3720
sg3638
(dp3721
S'self._listify'
p3722
S"<bound method Table._listify of <Table {'last_na...d': <gluon.dal.Field object at 0x7f8133915f90>}>>"
p3723
sS'fields'
p3724
S"{'address': '', 'allergies': 'ghghh', 'bloodgroup': 'O-', 'dob': '2015-04-14', 'email': 'a@b.cm', 'first_name': 'a', 'last_name': 'a', 'password': '', 'phone': '67', 'sex': 'F'}"
p3725
sS'self'
p3726
S"<Table {'last_name': <gluon.dal.Field object at ...id': <gluon.dal.Field object at 0x7f8133915f90>}>"
p3727
sS'self._db._adapter'
p3728
S'<gluon.dal.SQLiteAdapter object>'
p3729
sS'self._db._adapter.insert'
p3730
S'<bound method SQLiteAdapter.insert of <gluon.dal.SQLiteAdapter object>>'
p3731
sS'self._db'
p3732
S"<DAL {'auth_event': <Table {'origin': <gluon.dal...': <gluon.dal.Field object at 0x7f80de2ac090>}>}>"
p3733
ssg3644
I6829
sg3645
(dp3734
I6824
S''
sI6825
S'    def _insert(self, **fields):'
p3735
sI6826
S'        return self._db._adapter._insert(self,self._listify(fields))'
p3736
sI6827
S''
sI6828
S'    def insert(self, **fields):'
p3737
sI6829
S'        return self._db._adapter.insert(self,self._listify(fields))'
p3738
sI6830
S''
sI6831
S'    def validate_and_insert(self,**fields):'
p3739
sI6832
S'        response = Row()'
p3740
sI6833
S'        response.errors = Row()'
p3741
ssg3657
S"(self=<Table {'last_name': <gluon.dal.Field object at ...id': <gluon.dal.Field object at 0x7f8133915f90>}>, **fields={'address': '', 'allergies': 'ghghh', 'bloodgroup': 'O-', 'dob': '2015-04-14', 'email': 'a@b.cm', 'first_name': 'a', 'last_name': 'a', 'password': '', 'phone': '67', 'sex': 'F'})"
p3742
sg3659
S'insert'
p3743
sa(dp3744
g3636
S'/usr/lib/pymodules/python2.7/gluon/dal.py'
p3745
sg3638
(dp3746
S'e'
S"IntegrityError('UNIQUE constraint failed: patient.email',)"
p3747
ssg3644
I928
sg3645
(dp3748
I928
S'            raise e'
p3749
sI929
S"        if hasattr(table,'_primarykey'):"
p3750
sI930
S'            return dict([(k[0].name, k[1]) for k in fields \\'
p3751
sI931
S'                             if k[0].name in table._primarykey])'
p3752
sI932
S'        id = self.lastrowid(table)'
p3753
sI923
S'        try:'
p3754
sI924
S'            self.execute(query)'
p3755
sI925
S'        except Exception, e:'
p3756
sI926
S'            if isinstance(e,self.integrity_error_class()):'
p3757
sI927
S'                return None'
p3758
ssg3657
S"(self=<gluon.dal.SQLiteAdapter object>, table=<Table {'last_name': <gluon.dal.Field object at ...id': <gluon.dal.Field object at 0x7f8133915f90>}>, fields=[(<gluon.dal.Field object>, 'a'), (<gluon.dal.Field object>, 'a'), (<gluon.dal.Field object>, '2015-04-14'), (<gluon.dal.Field object>, 'ghghh'), (<gluon.dal.Field object>, 'F'), (<gluon.dal.Field object>, '67'), (<gluon.dal.Field object>, ''), (<gluon.dal.Field object>, ''), (<gluon.dal.Field object>, 'a@b.cm'), (<gluon.dal.Field object>, 'O-')])"
p3759
sg3659
g3743
sasS'pyver'
p3760
S'Python 2.7.6: /usr/bin/python'
p3761
sS'session'
p3762
g61
(g62
g63
NtRp3763
(dp3764
g66
(dp3765
sg68
(lp3766
g61
(g70
g63
NtRp3767
(dp3768
g66
(dp3769
g74
I5
ssg75
Nsg68
(lp3770
g61
(g77
g63
NtRp3771
(dp3772
g66
(dp3773
sg75
g3767
sg68
(lp3774
g61
(g82
g63
NtRp3775
(dp3776
g66
(dp3777
g86
g87
ssg75
g3771
sg68
(lp3778
S'last_query'
p3779
asbag61
(g82
g63
NtRp3780
(dp3781
g66
(dp3782
g93
g94
ssg75
g3771
sg68
(lp3783
S':'
asbag61
(g82
g63
NtRp3784
(dp3785
g66
(dp3786
sg75
g3771
sg68
(lp3787
g61
(g62
g63
NtRp3788
(dp3789
g66
(dp3790
g74
I5
ssg75
g3784
sg68
(lp3791
S'db.patient.id>0'
p3792
asbasbasbasbasbsS'etype'
p3793
S"<class 'sqlite3.IntegrityError'>"
p3794
sS'date'
p3795
S'Thu Apr  2 20:08:56 2015'
p3796
sS'response'
p3797
g61
(g62
g63
NtRp3798
(dp3799
g66
(dp3800
sg68
(lp3801
g61
(g70
g63
NtRp3802
(dp3803
g66
(dp3804
g74
I5
ssg75
Nsg68
(lp3805
g61
(g77
g63
NtRp3806
(dp3807
g66
(dp3808
sg75
g3802
sg68
(lp3809
g61
(g82
g63
NtRp3810
(dp3811
g66
(dp3812
g86
g87
ssg75
g3806
sg68
(lp3813
g159
asbag61
(g82
g63
NtRp3814
(dp3815
g66
(dp3816
g93
g94
ssg75
g3806
sg68
(lp3817
S':'
asbag61
(g82
g63
NtRp3818
(dp3819
g66
(dp3820
sg75
g3806
sg68
(lp3821
g61
(g62
g63
NtRp3822
(dp3823
g66
(dp3824
g74
I5
ssg75
g3818
sg68
(lp3825
S'<cStringIO.StringO object at 0x7f81001729d0>'
p3826
asbasbasbag61
(g77
g63
NtRp3827
(dp3828
g66
(dp3829
sg75
g3802
sg68
(lp3830
g61
(g82
g63
NtRp3831
(dp3832
g66
(dp3833
g86
g87
ssg75
g3827
sg68
(lp3834
g225
asbag61
(g82
g63
NtRp3835
(dp3836
g66
(dp3837
g93
g94
ssg75
g3827
sg68
(lp3838
S':'
asbag61
(g82
g63
NtRp3839
(dp3840
g66
(dp3841
sg75
g3827
sg68
(lp3842
g61
(g62
g63
NtRp3843
(dp3844
g66
(dp3845
g74
I5
ssg75
g3839
sg68
(lp3846
g61
(g70
g63
NtRp3847
(dp3848
g66
(dp3849
g74
I4
ssg75
Nsg68
(lp3850
g61
(g77
g63
NtRp3851
(dp3852
g66
(dp3853
sg75
g3847
sg68
(lp3854
g61
(g82
g63
NtRp3855
(dp3856
g66
(dp3857
g86
g87
ssg75
g3851
sg68
(lp3858
S'session_id_aarogya'
p3859
asbag61
(g82
g63
NtRp3860
(dp3861
g66
(dp3862
g93
g94
ssg75
g3851
sg68
(lp3863
S':'
asbag61
(g82
g63
NtRp3864
(dp3865
g66
(dp3866
sg75
g3851
sg68
(lp3867
g61
(g62
g63
NtRp3868
(dp3869
g66
(dp3870
g74
I4
ssg75
g3864
sg68
(lp3871
g61
(g70
g63
NtRp3872
(dp3873
g66
(dp3874
g74
I3
ssg75
Nsg68
(lp3875
g61
(g77
g63
NtRp3876
(dp3877
g66
(dp3878
sg75
g3872
sg68
(lp3879
g61
(g82
g63
NtRp3880
(dp3881
g66
(dp3882
g86
g87
ssg75
g3876
sg68
(lp3883
g275
asbag61
(g82
g63
NtRp3884
(dp3885
g66
(dp3886
g93
g94
ssg75
g3876
sg68
(lp3887
S':'
asbag61
(g82
g63
NtRp3888
(dp3889
g66
(dp3890
sg75
g3876
sg68
(lp3891
g61
(g62
g63
NtRp3892
(dp3893
g66
(dp3894
g74
I3
ssg75
g3888
sg68
(lp3895
S''
asbasbasbag61
(g77
g63
NtRp3896
(dp3897
g66
(dp3898
sg75
g3872
sg68
(lp3899
g61
(g82
g63
NtRp3900
(dp3901
g66
(dp3902
g86
g87
ssg75
g3896
sg68
(lp3903
g296
asbag61
(g82
g63
NtRp3904
(dp3905
g66
(dp3906
g93
g94
ssg75
g3896
sg68
(lp3907
S':'
asbag61
(g82
g63
NtRp3908
(dp3909
g66
(dp3910
sg75
g3896
sg68
(lp3911
g61
(g62
g63
NtRp3912
(dp3913
g66
(dp3914
g74
I3
ssg75
g3908
sg68
(lp3915
S''
asbasbasbag61
(g77
g63
NtRp3916
(dp3917
g66
(dp3918
sg75
g3872
sg68
(lp3919
g61
(g82
g63
NtRp3920
(dp3921
g66
(dp3922
g86
g87
ssg75
g3916
sg68
(lp3923
g317
asbag61
(g82
g63
NtRp3924
(dp3925
g66
(dp3926
g93
g94
ssg75
g3916
sg68
(lp3927
S':'
asbag61
(g82
g63
NtRp3928
(dp3929
g66
(dp3930
sg75
g3916
sg68
(lp3931
g61
(g62
g63
NtRp3932
(dp3933
g66
(dp3934
g74
I3
ssg75
g3928
sg68
(lp3935
S''
asbasbasbag61
(g77
g63
NtRp3936
(dp3937
g66
(dp3938
sg75
g3872
sg68
(lp3939
g61
(g82
g63
NtRp3940
(dp3941
g66
(dp3942
g86
g87
ssg75
g3936
sg68
(lp3943
g338
asbag61
(g82
g63
NtRp3944
(dp3945
g66
(dp3946
g93
g94
ssg75
g3936
sg68
(lp3947
S':'
asbag61
(g82
g63
NtRp3948
(dp3949
g66
(dp3950
sg75
g3936
sg68
(lp3951
g61
(g62
g63
NtRp3952
(dp3953
g66
(dp3954
g74
I3
ssg75
g3948
sg68
(lp3955
S''
asbasbasbag61
(g77
g63
NtRp3956
(dp3957
g66
(dp3958
sg75
g3872
sg68
(lp3959
g61
(g82
g63
NtRp3960
(dp3961
g66
(dp3962
g86
g87
ssg75
g3956
sg68
(lp3963
g359
asbag61
(g82
g63
NtRp3964
(dp3965
g66
(dp3966
g93
g94
ssg75
g3956
sg68
(lp3967
S':'
asbag61
(g82
g63
NtRp3968
(dp3969
g66
(dp3970
sg75
g3956
sg68
(lp3971
g61
(g62
g63
NtRp3972
(dp3973
g66
(dp3974
g74
I3
ssg75
g3968
sg68
(lp3975
S''
asbasbasbag61
(g77
g63
NtRp3976
(dp3977
g66
(dp3978
sg75
g3872
sg68
(lp3979
g61
(g82
g63
NtRp3980
(dp3981
g66
(dp3982
g86
g87
ssg75
g3976
sg68
(lp3983
g380
asbag61
(g82
g63
NtRp3984
(dp3985
g66
(dp3986
g93
g94
ssg75
g3976
sg68
(lp3987
S':'
asbag61
(g82
g63
NtRp3988
(dp3989
g66
(dp3990
sg75
g3976
sg68
(lp3991
g61
(g62
g63
NtRp3992
(dp3993
g66
(dp3994
g74
I3
ssg75
g3988
sg68
(lp3995
S'/'
asbasbasbag61
(g77
g63
NtRp3996
(dp3997
g66
(dp3998
sg75
g3872
sg68
(lp3999
g61
(g82
g63
NtRp4000
(dp4001
g66
(dp4002
g86
g87
ssg75
g3996
sg68
(lp4003
g401
asbag61
(g82
g63
NtRp4004
(dp4005
g66
(dp4006
g93
g94
ssg75
g3996
sg68
(lp4007
S':'
asbag61
(g82
g63
NtRp4008
(dp4009
g66
(dp4010
sg75
g3996
sg68
(lp4011
g61
(g62
g63
NtRp4012
(dp4013
g66
(dp4014
g74
I3
ssg75
g4008
sg68
(lp4015
S''
asbasbasbag61
(g77
g63
NtRp4016
(dp4017
g66
(dp4018
sg75
g3872
sg68
(lp4019
g61
(g82
g63
NtRp4020
(dp4021
g66
(dp4022
g86
g87
ssg75
g4016
sg68
(lp4023
g422
asbag61
(g82
g63
NtRp4024
(dp4025
g66
(dp4026
g93
g94
ssg75
g4016
sg68
(lp4027
S':'
asbag61
(g82
g63
NtRp4028
(dp4029
g66
(dp4030
sg75
g4016
sg68
(lp4031
g61
(g62
g63
NtRp4032
(dp4033
g66
(dp4034
g74
I3
ssg75
g4028
sg68
(lp4035
S''
asbasbasbasbasbasbasbasbasbasbasbag61
(g77
g63
NtRp4036
(dp4037
g66
(dp4038
sg75
g3802
sg68
(lp4039
g61
(g82
g63
NtRp4040
(dp4041
g66
(dp4042
g86
g87
ssg75
g4036
sg68
(lp4043
S'delimiters'
p4044
asbag61
(g82
g63
NtRp4045
(dp4046
g66
(dp4047
g93
g94
ssg75
g4036
sg68
(lp4048
S':'
asbag61
(g82
g63
NtRp4049
(dp4050
g66
(dp4051
sg75
g4036
sg68
(lp4052
g61
(g62
g63
NtRp4053
(dp4054
g66
(dp4055
g74
I5
ssg75
g4049
sg68
(lp4056
g61
(g70
g63
NtRp4057
(dp4058
g66
(dp4059
g74
I4
ssg75
Nsg68
(lp4060
g61
(g77
g63
NtRp4061
(dp4062
g66
(dp4063
sg75
g4057
sg68
(lp4064
g61
(g82
g63
NtRp4065
(dp4066
g66
(dp4067
sg75
g4061
sg68
(lp4068
g61
(g62
g63
NtRp4069
(dp4070
g66
(dp4071
g74
I4
ssg75
g4065
sg68
(lp4072
S'{{'
p4073
asbasbasbag61
(g77
g63
NtRp4074
(dp4075
g66
(dp4076
sg75
g4057
sg68
(lp4077
g61
(g82
g63
NtRp4078
(dp4079
g66
(dp4080
sg75
g4074
sg68
(lp4081
g61
(g62
g63
NtRp4082
(dp4083
g66
(dp4084
g74
I4
ssg75
g4078
sg68
(lp4085
S'}}'
p4086
asbasbasbasbasbasbasbag61
(g77
g63
NtRp4087
(dp4088
g66
(dp4089
sg75
g3802
sg68
(lp4090
g61
(g82
g63
NtRp4091
(dp4092
g66
(dp4093
g86
g87
ssg75
g4087
sg68
(lp4094
S'files'
p4095
asbag61
(g82
g63
NtRp4096
(dp4097
g66
(dp4098
g93
g94
ssg75
g4087
sg68
(lp4099
S':'
asbag61
(g82
g63
NtRp4100
(dp4101
g66
(dp4102
sg75
g4087
sg68
(lp4103
g61
(g62
g63
NtRp4104
(dp4105
g66
(dp4106
g74
I5
ssg75
g4100
sg68
(lp4107
g61
(g70
g63
NtRp4108
(dp4109
g66
(dp4110
g74
I4
ssg75
Nsg68
(lp4111
sbasbasbasbag61
(g77
g63
NtRp4112
(dp4113
g66
(dp4114
sg75
g3802
sg68
(lp4115
g61
(g82
g63
NtRp4116
(dp4117
g66
(dp4118
g86
g87
ssg75
g4112
sg68
(lp4119
S'flash'
p4120
asbag61
(g82
g63
NtRp4121
(dp4122
g66
(dp4123
g93
g94
ssg75
g4112
sg68
(lp4124
S':'
asbag61
(g82
g63
NtRp4125
(dp4126
g66
(dp4127
sg75
g4112
sg68
(lp4128
g61
(g62
g63
NtRp4129
(dp4130
g66
(dp4131
g74
I5
ssg75
g4125
sg68
(lp4132
cgluon.languages
lazyT_unpickle
p4133
(S's\x08\x00\x00\x00Success!'
tRp4134
asbasbasbag61
(g77
g63
NtRp4135
(dp4136
g66
(dp4137
sg75
g3802
sg68
(lp4138
g61
(g82
g63
NtRp4139
(dp4140
g66
(dp4141
g86
g87
ssg75
g4135
sg68
(lp4142
S'generic_patterns'
p4143
asbag61
(g82
g63
NtRp4144
(dp4145
g66
(dp4146
g93
g94
ssg75
g4135
sg68
(lp4147
S':'
asbag61
(g82
g63
NtRp4148
(dp4149
g66
(dp4150
sg75
g4135
sg68
(lp4151
g61
(g62
g63
NtRp4152
(dp4153
g66
(dp4154
g74
I5
ssg75
g4148
sg68
(lp4155
g61
(g70
g63
NtRp4156
(dp4157
g66
(dp4158
g74
I4
ssg75
Nsg68
(lp4159
g61
(g77
g63
NtRp4160
(dp4161
g66
(dp4162
sg75
g4156
sg68
(lp4163
g61
(g82
g63
NtRp4164
(dp4165
g66
(dp4166
sg75
g4160
sg68
(lp4167
g61
(g62
g63
NtRp4168
(dp4169
g66
(dp4170
g74
I4
ssg75
g4164
sg68
(lp4171
S'*'
asbasbasbasbasbasbasbag61
(g77
g63
NtRp4172
(dp4173
g66
(dp4174
sg75
g3802
sg68
(lp4175
g61
(g82
g63
NtRp4176
(dp4177
g66
(dp4178
g86
g87
ssg75
g4172
sg68
(lp4179
S'headers'
p4180
asbag61
(g82
g63
NtRp4181
(dp4182
g66
(dp4183
g93
g94
ssg75
g4172
sg68
(lp4184
S':'
asbag61
(g82
g63
NtRp4185
(dp4186
g66
(dp4187
sg75
g4172
sg68
(lp4188
g61
(g62
g63
NtRp4189
(dp4190
g66
(dp4191
g74
I5
ssg75
g4185
sg68
(lp4192
g61
(g70
g63
NtRp4193
(dp4194
g66
(dp4195
g74
I4
ssg75
Nsg68
(lp4196
g61
(g77
g63
NtRp4197
(dp4198
g66
(dp4199
sg75
g4193
sg68
(lp4200
g61
(g82
g63
NtRp4201
(dp4202
g66
(dp4203
g86
g87
ssg75
g4197
sg68
(lp4204
S'Cache-Control'
p4205
asbag61
(g82
g63
NtRp4206
(dp4207
g66
(dp4208
g93
g94
ssg75
g4197
sg68
(lp4209
S':'
asbag61
(g82
g63
NtRp4210
(dp4211
g66
(dp4212
sg75
g4197
sg68
(lp4213
g61
(g62
g63
NtRp4214
(dp4215
g66
(dp4216
g74
I4
ssg75
g4210
sg68
(lp4217
S'no-store, no-cache, must-revalidate, post-check=0, pre-check=0'
p4218
asbasbasbag61
(g77
g63
NtRp4219
(dp4220
g66
(dp4221
sg75
g4193
sg68
(lp4222
g61
(g82
g63
NtRp4223
(dp4224
g66
(dp4225
g86
g87
ssg75
g4219
sg68
(lp4226
S'Content-Type'
p4227
asbag61
(g82
g63
NtRp4228
(dp4229
g66
(dp4230
g93
g94
ssg75
g4219
sg68
(lp4231
S':'
asbag61
(g82
g63
NtRp4232
(dp4233
g66
(dp4234
sg75
g4219
sg68
(lp4235
g61
(g62
g63
NtRp4236
(dp4237
g66
(dp4238
g74
I4
ssg75
g4232
sg68
(lp4239
S'text/html; charset=utf-8'
p4240
asbasbasbag61
(g77
g63
NtRp4241
(dp4242
g66
(dp4243
sg75
g4193
sg68
(lp4244
g61
(g82
g63
NtRp4245
(dp4246
g66
(dp4247
g86
g87
ssg75
g4241
sg68
(lp4248
S'Expires'
p4249
asbag61
(g82
g63
NtRp4250
(dp4251
g66
(dp4252
g93
g94
ssg75
g4241
sg68
(lp4253
S':'
asbag61
(g82
g63
NtRp4254
(dp4255
g66
(dp4256
sg75
g4241
sg68
(lp4257
g61
(g62
g63
NtRp4258
(dp4259
g66
(dp4260
g74
I4
ssg75
g4254
sg68
(lp4261
S'Thu, 02 Apr 2015 14:38:56 GMT'
p4262
asbasbasbag61
(g77
g63
NtRp4263
(dp4264
g66
(dp4265
sg75
g4193
sg68
(lp4266
g61
(g82
g63
NtRp4267
(dp4268
g66
(dp4269
g86
g87
ssg75
g4263
sg68
(lp4270
S'Pragma'
p4271
asbag61
(g82
g63
NtRp4272
(dp4273
g66
(dp4274
g93
g94
ssg75
g4263
sg68
(lp4275
S':'
asbag61
(g82
g63
NtRp4276
(dp4277
g66
(dp4278
sg75
g4263
sg68
(lp4279
g61
(g62
g63
NtRp4280
(dp4281
g66
(dp4282
g74
I4
ssg75
g4276
sg68
(lp4283
S'no-cache'
p4284
asbasbasbag61
(g77
g63
NtRp4285
(dp4286
g66
(dp4287
sg75
g4193
sg68
(lp4288
g61
(g82
g63
NtRp4289
(dp4290
g66
(dp4291
g86
g87
ssg75
g4285
sg68
(lp4292
S'X-Powered-By'
p4293
asbag61
(g82
g63
NtRp4294
(dp4295
g66
(dp4296
g93
g94
ssg75
g4285
sg68
(lp4297
S':'
asbag61
(g82
g63
NtRp4298
(dp4299
g66
(dp4300
sg75
g4285
sg68
(lp4301
g61
(g62
g63
NtRp4302
(dp4303
g66
(dp4304
g74
I4
ssg75
g4298
sg68
(lp4305
S'web2py'
p4306
asbasbasbasbasbasbasbag61
(g77
g63
NtRp4307
(dp4308
g66
(dp4309
sg75
g3802
sg68
(lp4310
g61
(g82
g63
NtRp4311
(dp4312
g66
(dp4313
g86
g87
ssg75
g4307
sg68
(lp4314
S'menu'
p4315
asbag61
(g82
g63
NtRp4316
(dp4317
g66
(dp4318
g93
g94
ssg75
g4307
sg68
(lp4319
S':'
asbag61
(g82
g63
NtRp4320
(dp4321
g66
(dp4322
sg75
g4307
sg68
(lp4323
g61
(g62
g63
NtRp4324
(dp4325
g66
(dp4326
g74
I5
ssg75
g4320
sg68
(lp4327
g61
(g70
g63
NtRp4328
(dp4329
g66
(dp4330
g74
I4
ssg75
Nsg68
(lp4331
g61
(g77
g63
NtRp4332
(dp4333
g66
(dp4334
sg75
g4328
sg68
(lp4335
g61
(g82
g63
NtRp4336
(dp4337
g66
(dp4338
sg75
g4332
sg68
(lp4339
g61
(g62
g63
NtRp4340
(dp4341
g66
(dp4342
g74
I4
ssg75
g4336
sg68
(lp4343
g61
(g70
g63
NtRp4344
(dp4345
g66
(dp4346
g74
I3
ssg75
Nsg68
(lp4347
g61
(g77
g63
NtRp4348
(dp4349
g66
(dp4350
sg75
g4344
sg68
(lp4351
g61
(g82
g63
NtRp4352
(dp4353
g66
(dp4354
sg75
g4348
sg68
(lp4355
g61
(g62
g63
NtRp4356
(dp4357
g66
(dp4358
g74
I3
ssg75
g4352
sg68
(lp4359
g4133
(S't\x04\x00\x00\x00Home'
tRp4360
asbasbasbag61
(g77
g63
NtRp4361
(dp4362
g66
(dp4363
sg75
g4344
sg68
(lp4364
g61
(g82
g63
NtRp4365
(dp4366
g66
(dp4367
sg75
g4361
sg68
(lp4368
g61
(g62
g63
NtRp4369
(dp4370
g66
(dp4371
g74
I3
ssg75
g4365
sg68
(lp4372
g104
asbasbasbag61
(g77
g63
NtRp4373
(dp4374
g66
(dp4375
sg75
g4344
sg68
(lp4376
g61
(g82
g63
NtRp4377
(dp4378
g66
(dp4379
sg75
g4373
sg68
(lp4380
g61
(g62
g63
NtRp4381
(dp4382
g66
(dp4383
g74
I3
ssg75
g4377
sg68
(lp4384
S'/Aarogya/default/index'
p4385
asbasbasbag61
(g77
g63
NtRp4386
(dp4387
g66
(dp4388
sg75
g4344
sg68
(lp4389
g61
(g82
g63
NtRp4390
(dp4391
g66
(dp4392
sg75
g4386
sg68
(lp4393
g61
(g62
g63
NtRp4394
(dp4395
g66
(dp4396
g74
I3
ssg75
g4390
sg68
(lp4397
g61
(g70
g63
NtRp4398
(dp4399
g66
(dp4400
g74
I2
ssg75
Nsg68
(lp4401
sbasbasbasbasbasbasbasbag61
(g77
g63
NtRp4402
(dp4403
g66
(dp4404
sg75
g4328
sg68
(lp4405
g61
(g82
g63
NtRp4406
(dp4407
g66
(dp4408
sg75
g4402
sg68
(lp4409
g61
(g62
g63
NtRp4410
(dp4411
g66
(dp4412
g74
I4
ssg75
g4406
sg68
(lp4413
g61
(g70
g63
NtRp4414
(dp4415
g66
(dp4416
g74
I3
ssg75
Nsg68
(lp4417
g61
(g77
g63
NtRp4418
(dp4419
g66
(dp4420
sg75
g4414
sg68
(lp4421
g61
(g82
g63
NtRp4422
(dp4423
g66
(dp4424
sg75
g4418
sg68
(lp4425
g61
(g62
g63
NtRp4426
(dp4427
g66
(dp4428
g74
I3
ssg75
g4422
sg68
(lp4429
g61
(cgluon.html
SPAN
p4430
g63
NtRp4431
(dp4432
g66
(dp4433
g86
S'color:yellow'
p4434
ssg75
Nsg68
(lp4435
g4306
asbasbasbasbag61
(g77
g63
NtRp4436
(dp4437
g66
(dp4438
sg75
g4414
sg68
(lp4439
g61
(g82
g63
NtRp4440
(dp4441
g66
(dp4442
sg75
g4436
sg68
(lp4443
g61
(g62
g63
NtRp4444
(dp4445
g66
(dp4446
g74
I3
ssg75
g4440
sg68
(lp4447
g104
asbasbasbag61
(g77
g63
NtRp4448
(dp4449
g66
(dp4450
sg75
g4414
sg68
(lp4451
g61
(g82
g63
NtRp4452
(dp4453
g66
(dp4454
sg75
g4448
sg68
(lp4455
g61
(g62
g63
NtRp4456
(dp4457
g66
(dp4458
g74
I3
ssg75
g4452
sg68
(lp4459
S'None'
p4460
asbasbasbag61
(g77
g63
NtRp4461
(dp4462
g66
(dp4463
sg75
g4414
sg68
(lp4464
g61
(g82
g63
NtRp4465
(dp4466
g66
(dp4467
sg75
g4461
sg68
(lp4468
g61
(g62
g63
NtRp4469
(dp4470
g66
(dp4471
g74
I3
ssg75
g4465
sg68
(lp4472
g61
(g70
g63
NtRp4473
(dp4474
g66
(dp4475
g74
I2
ssg75
Nsg68
(lp4476
g61
(g77
g63
NtRp4477
(dp4478
g66
(dp4479
sg75
g4473
sg68
(lp4480
g61
(g82
g63
NtRp4481
(dp4482
g66
(dp4483
sg75
g4477
sg68
(lp4484
g61
(g62
g63
NtRp4485
(dp4486
g66
(dp4487
g74
I2
ssg75
g4481
sg68
(lp4488
g61
(g70
g63
NtRp4489
(dp4490
g66
(dp4491
g74
I1
ssg75
Nsg68
(lp4492
g61
(g77
g63
NtRp4493
(dp4494
g66
(dp4495
sg75
g4489
sg68
(lp4496
g61
(g82
g63
NtRp4497
(dp4498
g66
(dp4499
sg75
g4493
sg68
(lp4500
g61
(g62
g63
NtRp4501
(dp4502
g66
(dp4503
g74
I1
ssg75
g4497
sg68
(lp4504
g4133
(S's\x08\x00\x00\x00My Sites'
tRp4505
asbasbasbag61
(g77
g63
NtRp4506
(dp4507
g66
(dp4508
sg75
g4489
sg68
(lp4509
g61
(g82
g63
NtRp4510
(dp4511
g66
(dp4512
sg75
g4506
sg68
(lp4513
g61
(g62
g63
NtRp4514
(dp4515
g66
(dp4516
g74
I1
ssg75
g4510
sg68
(lp4517
I00
asbasbasbag61
(g77
g63
NtRp4518
(dp4519
g66
(dp4520
sg75
g4489
sg68
(lp4521
g61
(g82
g63
NtRp4522
(dp4523
g66
(dp4524
sg75
g4518
sg68
(lp4525
g61
(g62
g63
NtRp4526
(dp4527
g66
(dp4528
g74
I1
ssg75
g4522
sg68
(lp4529
S'/admin/default/site'
p4530
asbasbasbasbasbasbasbag61
(g77
g63
NtRp4531
(dp4532
g66
(dp4533
sg75
g4473
sg68
(lp4534
g61
(g82
g63
NtRp4535
(dp4536
g66
(dp4537
sg75
g4531
sg68
(lp4538
g61
(g62
g63
NtRp4539
(dp4540
g66
(dp4541
g74
I2
ssg75
g4535
sg68
(lp4542
g61
(g70
g63
NtRp4543
(dp4544
g66
(dp4545
g74
I1
ssg75
Nsg68
(lp4546
g61
(g77
g63
NtRp4547
(dp4548
g66
(dp4549
sg75
g4543
sg68
(lp4550
g61
(g82
g63
NtRp4551
(dp4552
g66
(dp4553
sg75
g4547
sg68
(lp4554
g61
(g62
g63
NtRp4555
(dp4556
g66
(dp4557
g74
I1
ssg75
g4551
sg68
(lp4558
g4133
(S's\x08\x00\x00\x00This App'
tRp4559
asbasbasbag61
(g77
g63
NtRp4560
(dp4561
g66
(dp4562
sg75
g4543
sg68
(lp4563
g61
(g82
g63
NtRp4564
(dp4565
g66
(dp4566
sg75
g4560
sg68
(lp4567
g61
(g62
g63
NtRp4568
(dp4569
g66
(dp4570
g74
I1
ssg75
g4564
sg68
(lp4571
I00
asbasbasbag61
(g77
g63
NtRp4572
(dp4573
g66
(dp4574
sg75
g4543
sg68
(lp4575
g61
(g82
g63
NtRp4576
(dp4577
g66
(dp4578
sg75
g4572
sg68
(lp4579
g61
(g62
g63
NtRp4580
(dp4581
g66
(dp4582
g74
I1
ssg75
g4576
sg68
(lp4583
S'/admin/default/design/Aarogya'
p4584
asbasbasbag61
(g77
g63
NtRp4585
(dp4586
g66
(dp4587
sg75
g4543
sg68
(lp4588
g61
(g82
g63
NtRp4589
(dp4590
g66
(dp4591
sg75
g4585
sg68
(lp4592
g61
(g62
g63
NtRp4593
(dp4594
g66
(dp4595
g74
I1
ssg75
g4589
sg68
(lp4596
(lp4597
(g4133
(S't\n\x00\x00\x00Controller'
tRp4598
I00
S'/admin/default/edit/Aarogya/controllers/default.py'
tp4599
a(g4133
(S't\x04\x00\x00\x00View'
tRp4600
I00
S'/admin/default/edit/Aarogya/views/default/signin.html'
tp4601
a(g4133
(S't\x06\x00\x00\x00Layout'
tRp4602
I00
S'/admin/default/edit/Aarogya/views/layout.html'
tp4603
a(g4133
(S't\n\x00\x00\x00Stylesheet'
tRp4604
I00
S'/admin/default/edit/Aarogya/static/css/web2py.css'
tp4605
a(g4133
(S's\x08\x00\x00\x00DB Model'
tRp4606
I00
S'/admin/default/edit/Aarogya/models/db.py'
tp4607
a(g4133
(S's\n\x00\x00\x00Menu Model'
tRp4608
I00
S'/admin/default/edit/Aarogya/models/menu.py'
tp4609
a(g4133
(S't\x08\x00\x00\x00Database'
tRp4610
I00
S'/Aarogya/appadmin/index'
tp4611
a(g4133
(S't\x06\x00\x00\x00Errors'
tRp4612
I00
S'/admin/default/errors/Aarogya'
tp4613
a(g4133
(S't\x05\x00\x00\x00About'
tRp4614
I00
S'/admin/default/about/Aarogya'
tp4615
aasbasbasbasbasbasbasbag61
(g77
g63
NtRp4616
(dp4617
g66
(dp4618
sg75
g4473
sg68
(lp4619
g61
(g82
g63
NtRp4620
(dp4621
g66
(dp4622
sg75
g4616
sg68
(lp4623
g61
(g62
g63
NtRp4624
(dp4625
g66
(dp4626
g74
I2
ssg75
g4620
sg68
(lp4627
g61
(g70
g63
NtRp4628
(dp4629
g66
(dp4630
g74
I1
ssg75
Nsg68
(lp4631
g61
(g77
g63
NtRp4632
(dp4633
g66
(dp4634
sg75
g4628
sg68
(lp4635
g61
(g82
g63
NtRp4636
(dp4637
g66
(dp4638
sg75
g4632
sg68
(lp4639
g61
(g62
g63
NtRp4640
(dp4641
g66
(dp4642
g74
I1
ssg75
g4636
sg68
(lp4643
S'web2py.com'
p4644
asbasbasbag61
(g77
g63
NtRp4645
(dp4646
g66
(dp4647
sg75
g4628
sg68
(lp4648
g61
(g82
g63
NtRp4649
(dp4650
g66
(dp4651
sg75
g4645
sg68
(lp4652
g61
(g62
g63
NtRp4653
(dp4654
g66
(dp4655
g74
I1
ssg75
g4649
sg68
(lp4656
I00
asbasbasbag61
(g77
g63
NtRp4657
(dp4658
g66
(dp4659
sg75
g4628
sg68
(lp4660
g61
(g82
g63
NtRp4661
(dp4662
g66
(dp4663
sg75
g4657
sg68
(lp4664
g61
(g62
g63
NtRp4665
(dp4666
g66
(dp4667
g74
I1
ssg75
g4661
sg68
(lp4668
S'http://www.web2py.com'
p4669
asbasbasbag61
(g77
g63
NtRp4670
(dp4671
g66
(dp4672
sg75
g4628
sg68
(lp4673
g61
(g82
g63
NtRp4674
(dp4675
g66
(dp4676
sg75
g4670
sg68
(lp4677
g61
(g62
g63
NtRp4678
(dp4679
g66
(dp4680
g74
I1
ssg75
g4674
sg68
(lp4681
(lp4682
(g4133
(S't\x08\x00\x00\x00Download'
tRp4683
I00
S'http://www.web2py.com/examples/default/download'
p4684
tp4685
a(g4133
(S't\x07\x00\x00\x00Support'
tRp4686
I00
S'http://www.web2py.com/examples/default/support'
p4687
tp4688
a(g4133
(S't\x04\x00\x00\x00Demo'
tRp4689
I00
S'http://web2py.com/demo_admin'
p4690
tp4691
a(g4133
(S's\x0e\x00\x00\x00Quick Examples'
tRp4692
I00
S'http://web2py.com/examples/default/examples'
p4693
tp4694
a(g4133
(S't\x03\x00\x00\x00FAQ'
tRp4695
I00
S'http://web2py.com/AlterEgo'
p4696
tp4697
a(g4133
(S't\x06\x00\x00\x00Videos'
tRp4698
I00
S'http://www.web2py.com/examples/default/videos/'
p4699
tp4700
a(g4133
(S's\x11\x00\x00\x00Free Applications'
tRp4701
I00
S'http://web2py.com/appliances'
p4702
tp4703
a(g4133
(S't\x07\x00\x00\x00Plugins'
tRp4704
I00
S'http://web2py.com/plugins'
p4705
tp4706
a(g4133
(S't\x07\x00\x00\x00Layouts'
tRp4707
I00
S'http://web2py.com/layouts'
p4708
tp4709
a(g4133
(S't\x07\x00\x00\x00Recipes'
tRp4710
I00
S'http://web2pyslices.com/'
p4711
tp4712
a(g4133
(S't\x08\x00\x00\x00Semantic'
tRp4713
I00
S'http://web2py.com/semantic'
p4714
tp4715
aasbasbasbasbasbasbasbag61
(g77
g63
NtRp4716
(dp4717
g66
(dp4718
sg75
g4473
sg68
(lp4719
g61
(g82
g63
NtRp4720
(dp4721
g66
(dp4722
sg75
g4716
sg68
(lp4723
g61
(g62
g63
NtRp4724
(dp4725
g66
(dp4726
g74
I2
ssg75
g4720
sg68
(lp4727
g61
(g70
g63
NtRp4728
(dp4729
g66
(dp4730
g74
I1
ssg75
Nsg68
(lp4731
g61
(g77
g63
NtRp4732
(dp4733
g66
(dp4734
sg75
g4728
sg68
(lp4735
g61
(g82
g63
NtRp4736
(dp4737
g66
(dp4738
sg75
g4732
sg68
(lp4739
g61
(g62
g63
NtRp4740
(dp4741
g66
(dp4742
g74
I1
ssg75
g4736
sg68
(lp4743
g4133
(S't\r\x00\x00\x00Documentation'
tRp4744
asbasbasbag61
(g77
g63
NtRp4745
(dp4746
g66
(dp4747
sg75
g4728
sg68
(lp4748
g61
(g82
g63
NtRp4749
(dp4750
g66
(dp4751
sg75
g4745
sg68
(lp4752
g61
(g62
g63
NtRp4753
(dp4754
g66
(dp4755
g74
I1
ssg75
g4749
sg68
(lp4756
I00
asbasbasbag61
(g77
g63
NtRp4757
(dp4758
g66
(dp4759
sg75
g4728
sg68
(lp4760
g61
(g82
g63
NtRp4761
(dp4762
g66
(dp4763
sg75
g4757
sg68
(lp4764
g61
(g62
g63
NtRp4765
(dp4766
g66
(dp4767
g74
I1
ssg75
g4761
sg68
(lp4768
S'http://www.web2py.com/book'
p4769
asbasbasbag61
(g77
g63
NtRp4770
(dp4771
g66
(dp4772
sg75
g4728
sg68
(lp4773
g61
(g82
g63
NtRp4774
(dp4775
g66
(dp4776
sg75
g4770
sg68
(lp4777
g61
(g62
g63
NtRp4778
(dp4779
g66
(dp4780
g74
I1
ssg75
g4774
sg68
(lp4781
(lp4782
(g4133
(S't\x07\x00\x00\x00Preface'
tRp4783
I00
S'http://www.web2py.com/book/default/chapter/00'
p4784
tp4785
a(g4133
(S't\x0c\x00\x00\x00Introduction'
tRp4786
I00
S'http://www.web2py.com/book/default/chapter/01'
p4787
tp4788
a(g4133
(S't\x06\x00\x00\x00Python'
tRp4789
I00
S'http://www.web2py.com/book/default/chapter/02'
p4790
tp4791
a(g4133
(S't\x08\x00\x00\x00Overview'
tRp4792
I00
S'http://www.web2py.com/book/default/chapter/03'
p4793
tp4794
a(g4133
(S's\x08\x00\x00\x00The Core'
tRp4795
I00
S'http://www.web2py.com/book/default/chapter/04'
p4796
tp4797
a(g4133
(S's\t\x00\x00\x00The Views'
tRp4798
I00
S'http://www.web2py.com/book/default/chapter/05'
p4799
tp4800
a(g4133
(S't\x08\x00\x00\x00Database'
tRp4801
I00
S'http://www.web2py.com/book/default/chapter/06'
p4802
tp4803
a(g4133
(S's\x14\x00\x00\x00Forms and Validators'
tRp4804
I00
S'http://www.web2py.com/book/default/chapter/07'
p4805
tp4806
a(g4133
(S's\r\x00\x00\x00Email and SMS'
tRp4807
I00
S'http://www.web2py.com/book/default/chapter/08'
p4808
tp4809
a(g4133
(S's\x0e\x00\x00\x00Access Control'
tRp4810
I00
S'http://www.web2py.com/book/default/chapter/09'
p4811
tp4812
a(g4133
(S't\x08\x00\x00\x00Services'
tRp4813
I00
S'http://www.web2py.com/book/default/chapter/10'
p4814
tp4815
a(g4133
(S's\x0c\x00\x00\x00Ajax Recipes'
tRp4816
I00
S'http://www.web2py.com/book/default/chapter/11'
p4817
tp4818
a(g4133
(S's\x16\x00\x00\x00Components and Plugins'
tRp4819
I00
S'http://www.web2py.com/book/default/chapter/12'
p4820
tp4821
a(g4133
(S's\x12\x00\x00\x00Deployment Recipes'
tRp4822
I00
S'http://www.web2py.com/book/default/chapter/13'
p4823
tp4824
a(g4133
(S's\r\x00\x00\x00Other Recipes'
tRp4825
I00
S'http://www.web2py.com/book/default/chapter/14'
p4826
tp4827
a(g4133
(S's\r\x00\x00\x00Buy this book'
tRp4828
I00
S'http://stores.lulu.com/web2py'
p4829
tp4830
aasbasbasbasbasbasbasbag61
(g77
g63
NtRp4831
(dp4832
g66
(dp4833
sg75
g4473
sg68
(lp4834
g61
(g82
g63
NtRp4835
(dp4836
g66
(dp4837
sg75
g4831
sg68
(lp4838
g61
(g62
g63
NtRp4839
(dp4840
g66
(dp4841
g74
I2
ssg75
g4835
sg68
(lp4842
g61
(g70
g63
NtRp4843
(dp4844
g66
(dp4845
g74
I1
ssg75
Nsg68
(lp4846
g61
(g77
g63
NtRp4847
(dp4848
g66
(dp4849
sg75
g4843
sg68
(lp4850
g61
(g82
g63
NtRp4851
(dp4852
g66
(dp4853
sg75
g4847
sg68
(lp4854
g61
(g62
g63
NtRp4855
(dp4856
g66
(dp4857
g74
I1
ssg75
g4851
sg68
(lp4858
g4133
(S't\t\x00\x00\x00Community'
tRp4859
asbasbasbag61
(g77
g63
NtRp4860
(dp4861
g66
(dp4862
sg75
g4843
sg68
(lp4863
g61
(g82
g63
NtRp4864
(dp4865
g66
(dp4866
sg75
g4860
sg68
(lp4867
g61
(g62
g63
NtRp4868
(dp4869
g66
(dp4870
g74
I1
ssg75
g4864
sg68
(lp4871
I00
asbasbasbag61
(g77
g63
NtRp4872
(dp4873
g66
(dp4874
sg75
g4843
sg68
(lp4875
g61
(g82
g63
NtRp4876
(dp4877
g66
(dp4878
sg75
g4872
sg68
(lp4879
g61
(g62
g63
NtRp4880
(dp4881
g66
(dp4882
g74
I1
ssg75
g4876
sg68
(lp4883
Nasbasbasbag61
(g77
g63
NtRp4884
(dp4885
g66
(dp4886
sg75
g4843
sg68
(lp4887
g61
(g82
g63
NtRp4888
(dp4889
g66
(dp4890
sg75
g4884
sg68
(lp4891
g61
(g62
g63
NtRp4892
(dp4893
g66
(dp4894
g74
I1
ssg75
g4888
sg68
(lp4895
(lp4896
(g4133
(S't\x06\x00\x00\x00Groups'
tRp4897
I00
S'http://www.web2py.com/examples/default/usergroups'
p4898
tp4899
a(g4133
(S't\x07\x00\x00\x00Twitter'
tRp4900
I00
S'http://twitter.com/web2py'
p4901
tp4902
a(g4133
(S's\t\x00\x00\x00Live Chat'
tRp4903
I00
S'http://webchat.freenode.net/?channels=web2py'
p4904
tp4905
aasbasbasbasbasbasbasbag61
(g77
g63
NtRp4906
(dp4907
g66
(dp4908
sg75
g4473
sg68
(lp4909
g61
(g82
g63
NtRp4910
(dp4911
g66
(dp4912
sg75
g4906
sg68
(lp4913
g61
(g62
g63
NtRp4914
(dp4915
g66
(dp4916
g74
I2
ssg75
g4910
sg68
(lp4917
g61
(g70
g63
NtRp4918
(dp4919
g66
(dp4920
g74
I1
ssg75
Nsg68
(lp4921
g61
(g77
g63
NtRp4922
(dp4923
g66
(dp4924
sg75
g4918
sg68
(lp4925
g61
(g82
g63
NtRp4926
(dp4927
g66
(dp4928
sg75
g4922
sg68
(lp4929
g61
(g62
g63
NtRp4930
(dp4931
g66
(dp4932
g74
I1
ssg75
g4926
sg68
(lp4933
g4133
(S't\x07\x00\x00\x00Plugins'
tRp4934
asbasbasbag61
(g77
g63
NtRp4935
(dp4936
g66
(dp4937
sg75
g4918
sg68
(lp4938
g61
(g82
g63
NtRp4939
(dp4940
g66
(dp4941
sg75
g4935
sg68
(lp4942
g61
(g62
g63
NtRp4943
(dp4944
g66
(dp4945
g74
I1
ssg75
g4939
sg68
(lp4946
I00
asbasbasbag61
(g77
g63
NtRp4947
(dp4948
g66
(dp4949
sg75
g4918
sg68
(lp4950
g61
(g82
g63
NtRp4951
(dp4952
g66
(dp4953
sg75
g4947
sg68
(lp4954
g61
(g62
g63
NtRp4955
(dp4956
g66
(dp4957
g74
I1
ssg75
g4951
sg68
(lp4958
Nasbasbasbag61
(g77
g63
NtRp4959
(dp4960
g66
(dp4961
sg75
g4918
sg68
(lp4962
g61
(g82
g63
NtRp4963
(dp4964
g66
(dp4965
sg75
g4959
sg68
(lp4966
g61
(g62
g63
NtRp4967
(dp4968
g66
(dp4969
g74
I1
ssg75
g4963
sg68
(lp4970
(lp4971
(S'plugin_wiki'
p4972
I00
S'http://web2py.com/examples/default/download'
p4973
tp4974
a(g4133
(S's\r\x00\x00\x00Other Plugins'
tRp4975
I00
g4705
tp4976
a(g4133
(S's\x0e\x00\x00\x00Layout Plugins'
tRp4977
I00
g4708
tp4978
aasbasbasbasbasbasbasbasbasbasbasbasbasbasbasbasbasbasbasbag61
(g77
g63
NtRp4979
(dp4980
g66
(dp4981
sg75
g3802
sg68
(lp4982
g61
(g82
g63
NtRp4983
(dp4984
g66
(dp4985
g86
g87
ssg75
g4979
sg68
(lp4986
S'meta'
p4987
asbag61
(g82
g63
NtRp4988
(dp4989
g66
(dp4990
g93
g94
ssg75
g4979
sg68
(lp4991
S':'
asbag61
(g82
g63
NtRp4992
(dp4993
g66
(dp4994
sg75
g4979
sg68
(lp4995
g61
(g62
g63
NtRp4996
(dp4997
g66
(dp4998
g74
I5
ssg75
g4992
sg68
(lp4999
g61
(g70
g63
NtRp5000
(dp5001
g66
(dp5002
g74
I4
ssg75
Nsg68
(lp5003
g61
(g77
g63
NtRp5004
(dp5005
g66
(dp5006
sg75
g5000
sg68
(lp5007
g61
(g82
g63
NtRp5008
(dp5009
g66
(dp5010
g86
g87
ssg75
g5004
sg68
(lp5011
S'author'
p5012
asbag61
(g82
g63
NtRp5013
(dp5014
g66
(dp5015
g93
g94
ssg75
g5004
sg68
(lp5016
S':'
asbag61
(g82
g63
NtRp5017
(dp5018
g66
(dp5019
sg75
g5004
sg68
(lp5020
g61
(g62
g63
NtRp5021
(dp5022
g66
(dp5023
g74
I4
ssg75
g5017
sg68
(lp5024
S'Your Name <you@example.com>'
p5025
asbasbasbag61
(g77
g63
NtRp5026
(dp5027
g66
(dp5028
sg75
g5000
sg68
(lp5029
g61
(g82
g63
NtRp5030
(dp5031
g66
(dp5032
g86
g87
ssg75
g5026
sg68
(lp5033
S'copyright'
p5034
asbag61
(g82
g63
NtRp5035
(dp5036
g66
(dp5037
g93
g94
ssg75
g5026
sg68
(lp5038
S':'
asbag61
(g82
g63
NtRp5039
(dp5040
g66
(dp5041
sg75
g5026
sg68
(lp5042
g61
(g62
g63
NtRp5043
(dp5044
g66
(dp5045
g74
I4
ssg75
g5039
sg68
(lp5046
S'Copyright 2011'
p5047
asbasbasbag61
(g77
g63
NtRp5048
(dp5049
g66
(dp5050
sg75
g5000
sg68
(lp5051
g61
(g82
g63
NtRp5052
(dp5053
g66
(dp5054
g86
g87
ssg75
g5048
sg68
(lp5055
S'description'
p5056
asbag61
(g82
g63
NtRp5057
(dp5058
g66
(dp5059
g93
g94
ssg75
g5048
sg68
(lp5060
S':'
asbag61
(g82
g63
NtRp5061
(dp5062
g66
(dp5063
sg75
g5048
sg68
(lp5064
g61
(g62
g63
NtRp5065
(dp5066
g66
(dp5067
g74
I4
ssg75
g5061
sg68
(lp5068
S'a cool new app'
p5069
asbasbasbag61
(g77
g63
NtRp5070
(dp5071
g66
(dp5072
sg75
g5000
sg68
(lp5073
g61
(g82
g63
NtRp5074
(dp5075
g66
(dp5076
g86
g87
ssg75
g5070
sg68
(lp5077
S'generator'
p5078
asbag61
(g82
g63
NtRp5079
(dp5080
g66
(dp5081
g93
g94
ssg75
g5070
sg68
(lp5082
S':'
asbag61
(g82
g63
NtRp5083
(dp5084
g66
(dp5085
sg75
g5070
sg68
(lp5086
g61
(g62
g63
NtRp5087
(dp5088
g66
(dp5089
g74
I4
ssg75
g5083
sg68
(lp5090
S'Web2py Web Framework'
p5091
asbasbasbag61
(g77
g63
NtRp5092
(dp5093
g66
(dp5094
sg75
g5000
sg68
(lp5095
g61
(g82
g63
NtRp5096
(dp5097
g66
(dp5098
g86
g87
ssg75
g5092
sg68
(lp5099
S'keywords'
p5100
asbag61
(g82
g63
NtRp5101
(dp5102
g66
(dp5103
g93
g94
ssg75
g5092
sg68
(lp5104
S':'
asbag61
(g82
g63
NtRp5105
(dp5106
g66
(dp5107
sg75
g5092
sg68
(lp5108
g61
(g62
g63
NtRp5109
(dp5110
g66
(dp5111
g74
I4
ssg75
g5105
sg68
(lp5112
S'web2py, python, framework'
p5113
asbasbasbasbasbasbasbag61
(g77
g63
NtRp5114
(dp5115
g66
(dp5116
sg75
g3802
sg68
(lp5117
g61
(g82
g63
NtRp5118
(dp5119
g66
(dp5120
g86
g87
ssg75
g5114
sg68
(lp5121
S'postprocessing'
p5122
asbag61
(g82
g63
NtRp5123
(dp5124
g66
(dp5125
g93
g94
ssg75
g5114
sg68
(lp5126
S':'
asbag61
(g82
g63
NtRp5127
(dp5128
g66
(dp5129
sg75
g5114
sg68
(lp5130
g61
(g62
g63
NtRp5131
(dp5132
g66
(dp5133
g74
I5
ssg75
g5127
sg68
(lp5134
g61
(g70
g63
NtRp5135
(dp5136
g66
(dp5137
g74
I4
ssg75
Nsg68
(lp5138
sbasbasbasbag61
(g77
g63
NtRp5139
(dp5140
g66
(dp5141
sg75
g3802
sg68
(lp5142
g61
(g82
g63
NtRp5143
(dp5144
g66
(dp5145
g86
g87
ssg75
g5139
sg68
(lp5146
S'session_file'
p5147
asbag61
(g82
g63
NtRp5148
(dp5149
g66
(dp5150
g93
g94
ssg75
g5139
sg68
(lp5151
S':'
asbag61
(g82
g63
NtRp5152
(dp5153
g66
(dp5154
sg75
g5139
sg68
(lp5155
g61
(g62
g63
NtRp5156
(dp5157
g66
(dp5158
g74
I5
ssg75
g5152
sg68
(lp5159
S"<open file '/home/rehas/web2py/applications/Aarogya/sessions/127.0.0.1-e2ba3789-4d9c-48e7-a17b-bf51d819a3ae', mode 'rb+' at 0x7f80ddf331e0>"
p5160
asbasbasbag61
(g77
g63
NtRp5161
(dp5162
g66
(dp5163
sg75
g3802
sg68
(lp5164
g61
(g82
g63
NtRp5165
(dp5166
g66
(dp5167
g86
g87
ssg75
g5161
sg68
(lp5168
S'session_filename'
p5169
asbag61
(g82
g63
NtRp5170
(dp5171
g66
(dp5172
g93
g94
ssg75
g5161
sg68
(lp5173
S':'
asbag61
(g82
g63
NtRp5174
(dp5175
g66
(dp5176
sg75
g5161
sg68
(lp5177
g61
(g62
g63
NtRp5178
(dp5179
g66
(dp5180
g74
I5
ssg75
g5174
sg68
(lp5181
S'/home/rehas/web2py/applications/Aarogya/sessions/127.0.0.1-e2ba3789-4d9c-48e7-a17b-bf51d819a3ae'
p5182
asbasbasbag61
(g77
g63
NtRp5183
(dp5184
g66
(dp5185
sg75
g3802
sg68
(lp5186
g61
(g82
g63
NtRp5187
(dp5188
g66
(dp5189
g86
g87
ssg75
g5183
sg68
(lp5190
S'session_id'
p5191
asbag61
(g82
g63
NtRp5192
(dp5193
g66
(dp5194
g93
g94
ssg75
g5183
sg68
(lp5195
S':'
asbag61
(g82
g63
NtRp5196
(dp5197
g66
(dp5198
sg75
g5183
sg68
(lp5199
g61
(g62
g63
NtRp5200
(dp5201
g66
(dp5202
g74
I5
ssg75
g5196
sg68
(lp5203
S'127.0.0.1-e2ba3789-4d9c-48e7-a17b-bf51d819a3ae'
p5204
asbasbasbag61
(g77
g63
NtRp5205
(dp5206
g66
(dp5207
sg75
g3802
sg68
(lp5208
g61
(g82
g63
NtRp5209
(dp5210
g66
(dp5211
g86
g87
ssg75
g5205
sg68
(lp5212
S'session_id_name'
p5213
asbag61
(g82
g63
NtRp5214
(dp5215
g66
(dp5216
g93
g94
ssg75
g5205
sg68
(lp5217
S':'
asbag61
(g82
g63
NtRp5218
(dp5219
g66
(dp5220
sg75
g5205
sg68
(lp5221
g61
(g62
g63
NtRp5222
(dp5223
g66
(dp5224
g74
I5
ssg75
g5218
sg68
(lp5225
g3859
asbasbasbag61
(g77
g63
NtRp5226
(dp5227
g66
(dp5228
sg75
g3802
sg68
(lp5229
g61
(g82
g63
NtRp5230
(dp5231
g66
(dp5232
g86
g87
ssg75
g5226
sg68
(lp5233
S'session_locked'
p5234
asbag61
(g82
g63
NtRp5235
(dp5236
g66
(dp5237
g93
g94
ssg75
g5226
sg68
(lp5238
S':'
asbag61
(g82
g63
NtRp5239
(dp5240
g66
(dp5241
sg75
g5226
sg68
(lp5242
g61
(g62
g63
NtRp5243
(dp5244
g66
(dp5245
g74
I5
ssg75
g5239
sg68
(lp5246
g1790
asbasbasbag61
(g77
g63
NtRp5247
(dp5248
g66
(dp5249
sg75
g3802
sg68
(lp5250
g61
(g82
g63
NtRp5251
(dp5252
g66
(dp5253
g86
g87
ssg75
g5247
sg68
(lp5254
S'session_new'
p5255
asbag61
(g82
g63
NtRp5256
(dp5257
g66
(dp5258
g93
g94
ssg75
g5247
sg68
(lp5259
S':'
asbag61
(g82
g63
NtRp5260
(dp5261
g66
(dp5262
sg75
g5247
sg68
(lp5263
g61
(g62
g63
NtRp5264
(dp5265
g66
(dp5266
g74
I5
ssg75
g5260
sg68
(lp5267
g104
asbasbasbag61
(g77
g63
NtRp5268
(dp5269
g66
(dp5270
sg75
g3802
sg68
(lp5271
g61
(g82
g63
NtRp5272
(dp5273
g66
(dp5274
g86
g87
ssg75
g5268
sg68
(lp5275
S'status'
p5276
asbag61
(g82
g63
NtRp5277
(dp5278
g66
(dp5279
g93
g94
ssg75
g5268
sg68
(lp5280
S':'
asbag61
(g82
g63
NtRp5281
(dp5282
g66
(dp5283
sg75
g5268
sg68
(lp5284
g61
(g62
g63
NtRp5285
(dp5286
g66
(dp5287
g74
I5
ssg75
g5281
sg68
(lp5288
S'200'
p5289
asbasbasbag61
(g77
g63
NtRp5290
(dp5291
g66
(dp5292
sg75
g3802
sg68
(lp5293
g61
(g82
g63
NtRp5294
(dp5295
g66
(dp5296
g86
g87
ssg75
g5290
sg68
(lp5297
S'subtitle'
p5298
asbag61
(g82
g63
NtRp5299
(dp5300
g66
(dp5301
g93
g94
ssg75
g5290
sg68
(lp5302
S':'
asbag61
(g82
g63
NtRp5303
(dp5304
g66
(dp5305
sg75
g5290
sg68
(lp5306
g61
(g62
g63
NtRp5307
(dp5308
g66
(dp5309
g74
I5
ssg75
g5303
sg68
(lp5310
g4133
(S's\r\x00\x00\x00customize me!'
tRp5311
asbasbasbag61
(g77
g63
NtRp5312
(dp5313
g66
(dp5314
sg75
g3802
sg68
(lp5315
g61
(g82
g63
NtRp5316
(dp5317
g66
(dp5318
g86
g87
ssg75
g5312
sg68
(lp5319
S'title'
p5320
asbag61
(g82
g63
NtRp5321
(dp5322
g66
(dp5323
g93
g94
ssg75
g5312
sg68
(lp5324
S':'
asbag61
(g82
g63
NtRp5325
(dp5326
g66
(dp5327
sg75
g5312
sg68
(lp5328
g61
(g62
g63
NtRp5329
(dp5330
g66
(dp5331
g74
I5
ssg75
g5325
sg68
(lp5332
S'Aarogya'
p5333
asbasbasbag61
(g77
g63
NtRp5334
(dp5335
g66
(dp5336
sg75
g3802
sg68
(lp5337
g61
(g82
g63
NtRp5338
(dp5339
g66
(dp5340
g86
g87
ssg75
g5334
sg68
(lp5341
g2669
asbag61
(g82
g63
NtRp5342
(dp5343
g66
(dp5344
g93
g94
ssg75
g5334
sg68
(lp5345
S':'
asbag61
(g82
g63
NtRp5346
(dp5347
g66
(dp5348
sg75
g5334
sg68
(lp5349
g61
(g62
g63
NtRp5350
(dp5351
g66
(dp5352
g74
I5
ssg75
g5346
sg68
(lp5353
g2682
asbasbasbag61
(g77
g63
NtRp5354
(dp5355
g66
(dp5356
sg75
g3802
sg68
(lp5357
g61
(g82
g63
NtRp5358
(dp5359
g66
(dp5360
g86
g87
ssg75
g5354
sg68
(lp5361
S'view'
p5362
asbag61
(g82
g63
NtRp5363
(dp5364
g66
(dp5365
g93
g94
ssg75
g5354
sg68
(lp5366
S':'
asbag61
(g82
g63
NtRp5367
(dp5368
g66
(dp5369
sg75
g5354
sg68
(lp5370
g61
(g62
g63
NtRp5371
(dp5372
g66
(dp5373
g74
I5
ssg75
g5367
sg68
(lp5374
S'default/signin.html'
p5375
asbasbasbasbasbsS'locals'
p5376
(dp5377
S'query'
p5378
S'"INSERT INTO patient(first_name,last_name,dob,all...015-04-14\',\'ghghh\',\'F\',\'67\',\'\',\'\',\'a@b.cm\',\'O-\');"'
p5379
sS'self'
p5380
S'<gluon.dal.SQLiteAdapter object>'
p5381
sS'e'
S"IntegrityError('UNIQUE constraint failed: patient.email',)"
p5382
sS'fields'
p5383
S"[(<gluon.dal.Field object>, 'a'), (<gluon.dal.Field object>, 'a'), (<gluon.dal.Field object>, '2015-04-14'), (<gluon.dal.Field object>, 'ghghh'), (<gluon.dal.Field object>, 'F'), (<gluon.dal.Field object>, '67'), (<gluon.dal.Field object>, ''), (<gluon.dal.Field object>, ''), (<gluon.dal.Field object>, 'a@b.cm'), (<gluon.dal.Field object>, 'O-')]"
p5384
sS'table'
p5385
S"<Table {'last_name': <gluon.dal.Field object at ...id': <gluon.dal.Field object at 0x7f8133915f90>}>"
p5386
sssS'traceback'
p5387
S'Traceback (most recent call last):\n  File "/usr/lib/pymodules/python2.7/gluon/restricted.py", line 205, in restricted\n    exec ccode in environment\n  File "/home/rehas/web2py/applications/Aarogya/controllers/default.py", line 101, in <module>\n  File "/usr/lib/pymodules/python2.7/gluon/globals.py", line 173, in <lambda>\n    self._caller = lambda f: f()\n  File "/home/rehas/web2py/applications/Aarogya/controllers/default.py", line 94, in signin\n    db.patient.insert(**db.patient._filter_fields(form.vars))\n  File "/usr/lib/pymodules/python2.7/gluon/dal.py", line 6829, in insert\n    return self._db._adapter.insert(self,self._listify(fields))\n  File "/usr/lib/pymodules/python2.7/gluon/dal.py", line 928, in insert\n    raise e\nIntegrityError: UNIQUE constraint failed: patient.email\n'
p5388
s.