(dp1
S'output'
p2
S"<class 'sqlite3.IntegrityError'> UNIQUE constraint failed: patient.email"
p3
sS'layer'
p4
S'/home/rehas/web2py/applications/Aarogya/controllers/appadmin.py'
p5
sS'code'
p6
S'# -*- coding: utf-8 -*-\n\n# ##########################################################\n# ## make sure administrator is on localhost\n# ###########################################################\n\nimport os\nimport socket\nimport datetime\nimport copy\nimport gluon.contenttype\nimport gluon.fileutils\n\n# ## critical --- make a copy of the environment\n\nglobal_env = copy.copy(globals())\nglobal_env[\'datetime\'] = datetime\n\nhttp_host = request.env.http_host.split(\':\')[0]\nremote_addr = request.env.remote_addr\ntry:\n    hosts = (http_host, socket.gethostname(),\n             socket.gethostbyname(http_host),\n             \'::1\',\'127.0.0.1\',\'::ffff:127.0.0.1\')\nexcept:\n    hosts = (http_host, )\n\nif request.env.http_x_forwarded_for or request.env.wsgi_url_scheme\\\n     in [\'https\', \'HTTPS\']:\n    session.secure()\nelif (remote_addr not in hosts) and (remote_addr != "127.0.0.1"):\n    raise HTTP(200, T(\'appadmin is disabled because insecure channel\'))\n\nif (request.application==\'admin\' and not session.authorized) or \\\n        (request.application!=\'admin\' and not gluon.fileutils.check_credentials(request)):\n    redirect(URL(\'admin\', \'default\', \'index\',\n                 vars=dict(send=URL(args=request.args,vars=request.vars))))\n\nignore_rw = True\nresponse.view = \'appadmin.html\'\nresponse.menu = [[T(\'design\'), False, URL(\'admin\', \'default\', \'design\',\n                 args=[request.application])], [T(\'db\'), False,\n                 URL(\'index\')], [T(\'state\'), False,\n                 URL(\'state\')], [T(\'cache\'), False,\n                 URL(\'ccache\')]]\n\n# ##########################################################\n# ## auxiliary functions\n# ###########################################################\n\n\ndef get_databases(request):\n    dbs = {}\n    for (key, value) in global_env.items():\n        cond = False\n        try:\n            cond = isinstance(value, GQLDB)\n        except:\n            cond = isinstance(value, SQLDB)\n        if cond:\n            dbs[key] = value\n    return dbs\n\n\ndatabases = get_databases(None)\n\n\ndef eval_in_global_env(text):\n    exec (\'_ret=%s\' % text, {}, global_env)\n    return global_env[\'_ret\']\n\n\ndef get_database(request):\n    if request.args and request.args[0] in databases:\n        return eval_in_global_env(request.args[0])\n    else:\n        session.flash = T(\'invalid request\')\n        redirect(URL(\'index\'))\n\n\ndef get_table(request):\n    db = get_database(request)\n    if len(request.args) > 1 and request.args[1] in db.tables:\n        return (db, request.args[1])\n    else:\n        session.flash = T(\'invalid request\')\n        redirect(URL(\'index\'))\n\n\ndef get_query(request):\n    try:\n        return eval_in_global_env(request.vars.query)\n    except Exception:\n        return None\n\n\ndef query_by_table_type(tablename,db,request=request):\n    keyed = hasattr(db[tablename],\'_primarykey\')\n    if keyed:\n        firstkey = db[tablename][db[tablename]._primarykey[0]]\n        cond = \'>0\'\n        if firstkey.type in [\'string\', \'text\']:\n            cond = \'!=""\'\n        qry = \'%s.%s.%s%s\' % (request.args[0], request.args[1], firstkey.name, cond)\n    else:\n        qry = \'%s.%s.id>0\' % tuple(request.args[:2])\n    return qry\n\n\n\n# ##########################################################\n# ## list all databases and tables\n# ###########################################################\n\n\ndef index():\n    return dict(databases=databases)\n\n\n# ##########################################################\n# ## insert a new record\n# ###########################################################\n\n\ndef insert():\n    (db, table) = get_table(request)\n    form = SQLFORM(db[table], ignore_rw=ignore_rw)\n    if form.accepts(request.vars, session):\n        response.flash = T(\'new record inserted\')\n    return dict(form=form,table=db[table])\n\n\n# ##########################################################\n# ## list all records in table and insert new record\n# ###########################################################\n\n\ndef download():\n    import os\n    db = get_database(request)\n    return response.download(request,db)\n\ndef csv():\n    import gluon.contenttype\n    response.headers[\'Content-Type\'] = \\\n        gluon.contenttype.contenttype(\'.csv\')\n    db = get_database(request)\n    query = get_query(request)\n    if not query:\n        return None\n    response.headers[\'Content-disposition\'] = \'attachment; filename=%s_%s.csv\'\\\n         % tuple(request.vars.query.split(\'.\')[:2])\n    return str(db(query,ignore_common_filters=True).select())\n\n\ndef import_csv(table, file):\n    table.import_from_csv_file(file)\n\ndef select():\n    import re\n    db = get_database(request)\n    dbname = request.args[0]\n    regex = re.compile(\'(?P<table>\\w+)\\.(?P<field>\\w+)=(?P<value>\\d+)\')\n    if len(request.args)>1 and hasattr(db[request.args[1]],\'_primarykey\'):\n        regex = re.compile(\'(?P<table>\\w+)\\.(?P<field>\\w+)=(?P<value>.+)\')\n    if request.vars.query:\n        match = regex.match(request.vars.query)\n        if match:\n            request.vars.query = \'%s.%s.%s==%s\' % (request.args[0],\n                    match.group(\'table\'), match.group(\'field\'),\n                    match.group(\'value\'))\n    else:\n        request.vars.query = session.last_query\n    query = get_query(request)\n    if request.vars.start:\n        start = int(request.vars.start)\n    else:\n        start = 0\n    nrows = 0\n    stop = start + 100\n    table = None\n    rows = []\n    orderby = request.vars.orderby\n    if orderby:\n        orderby = dbname + \'.\' + orderby\n        if orderby == session.last_orderby:\n            if orderby[0] == \'~\':\n                orderby = orderby[1:]\n            else:\n                orderby = \'~\' + orderby\n    session.last_orderby = orderby\n    session.last_query = request.vars.query\n    form = FORM(TABLE(TR(T(\'Query:\'), \'\', INPUT(_style=\'width:400px\',\n                _name=\'query\', _value=request.vars.query or \'\',\n                requires=IS_NOT_EMPTY(error_message=T("Cannot be empty")))), TR(T(\'Update:\'),\n                INPUT(_name=\'update_check\', _type=\'checkbox\',\n                value=False), INPUT(_style=\'width:400px\',\n                _name=\'update_fields\', _value=request.vars.update_fields\n                 or \'\')), TR(T(\'Delete:\'), INPUT(_name=\'delete_check\',\n                _class=\'delete\', _type=\'checkbox\', value=False), \'\'),\n                TR(\'\', \'\', INPUT(_type=\'submit\', _value=\'submit\'))),\n                _action=URL(r=request,args=request.args))\n    if request.vars.csvfile != None:\n        try:\n            import_csv(db[request.vars.table],\n                       request.vars.csvfile.file)\n            response.flash = T(\'data uploaded\')\n        except Exception, e:\n            response.flash = DIV(T(\'unable to parse csv file\'),PRE(str(e)))\n    if form.accepts(request.vars, formname=None):\n#         regex = re.compile(request.args[0] + \'\\.(?P<table>\\w+)\\.id\\>0\')\n        regex = re.compile(request.args[0] + \'\\.(?P<table>\\w+)\\..+\')\n\n        match = regex.match(form.vars.query.strip())\n        if match:\n            table = match.group(\'table\')\n        try:\n            nrows = db(query).count()\n            if form.vars.update_check and form.vars.update_fields:\n                db(query).update(**eval_in_global_env(\'dict(%s)\'\n                                  % form.vars.update_fields))\n                response.flash = T(\'%s rows updated\', nrows)\n            elif form.vars.delete_check:\n                db(query).delete()\n                response.flash = T(\'%s rows deleted\', nrows)\n            nrows = db(query).count()\n            if orderby:\n                rows = db(query,ignore_common_filters=True).select(limitby=(start, stop), orderby=eval_in_global_env(orderby))\n            else:\n                rows = db(query,ignore_common_filters=True).select(limitby=(start, stop))\n        except Exception, e:\n            (rows, nrows) = ([], 0)\n            response.flash = DIV(T(\'Invalid Query\'),PRE(str(e)))\n    return dict(\n        form=form,\n        table=table,\n        start=start,\n        stop=stop,\n        nrows=nrows,\n        rows=rows,\n        query=request.vars.query,\n        )\n\n\n# ##########################################################\n# ## edit delete one record\n# ###########################################################\n\n\ndef update():\n    (db, table) = get_table(request)\n    keyed = hasattr(db[table],\'_primarykey\')\n    record = None\n    if keyed:\n        key = [f for f in request.vars if f in db[table]._primarykey]\n        if key:\n            record = db(db[table][key[0]] == request.vars[key[0]], ignore_common_filters=True).select().first()\n    else:\n        record = db(db[table].id == request.args(2),ignore_common_filters=True).select().first()\n\n    if not record:\n        qry = query_by_table_type(table, db)\n        session.flash = T(\'record does not exist\')\n        redirect(URL(\'select\', args=request.args[:1],\n                     vars=dict(query=qry)))\n\n    if keyed:\n        for k in db[table]._primarykey:\n            db[table][k].writable=False\n\n    form = SQLFORM(db[table], record, deletable=True, delete_label=T(\'Check to delete\'),\n                   ignore_rw=ignore_rw and not keyed,\n                   linkto=URL(\'select\',\n                   args=request.args[:1]), upload=URL(r=request,\n                   f=\'download\', args=request.args[:1]))\n\n    if form.accepts(request.vars, session):\n        session.flash = T(\'done!\')\n        qry = query_by_table_type(table, db)\n        redirect(URL(\'select\', args=request.args[:1],\n                 vars=dict(query=qry)))\n    return dict(form=form,table=db[table])\n\n\n# ##########################################################\n# ## get global variables\n# ###########################################################\n\n\ndef state():\n    return dict()\n\ndef ccache():\n    form = FORM(\n        P(TAG.BUTTON("Clear CACHE?", _type="submit", _name="yes", _value="yes")),\n        P(TAG.BUTTON("Clear RAM", _type="submit", _name="ram", _value="ram")),\n        P(TAG.BUTTON("Clear DISK", _type="submit", _name="disk", _value="disk")),\n    )\n\n    if form.accepts(request.vars, session):\n        clear_ram = False\n        clear_disk = False\n        session.flash = ""\n        if request.vars.yes:\n            clear_ram = clear_disk = True\n        if request.vars.ram:\n            clear_ram = True\n        if request.vars.disk:\n            clear_disk = True\n\n        if clear_ram:\n            cache.ram.clear()\n            session.flash += "Ram Cleared "\n        if clear_disk:\n            cache.disk.clear()\n            session.flash += "Disk Cleared"\n\n        redirect(URL(r=request))\n\n    try:\n        from guppy import hpy; hp=hpy()\n    except ImportError:\n        hp = False\n\n    import shelve, os, copy, time, math\n    from gluon import portalocker\n\n    ram = {\n        \'entries\': 0,\n        \'bytes\': 0,\n        \'objects\': 0,\n        \'hits\': 0,\n        \'misses\': 0,\n        \'ratio\': 0,\n        \'oldest\': time.time(),\n        \'keys\': []\n    }\n    disk = copy.copy(ram)\n    total = copy.copy(ram)\n    disk[\'keys\'] = []\n    total[\'keys\'] = []\n\n    def GetInHMS(seconds):\n        hours = math.floor(seconds / 3600)\n        seconds -= hours * 3600\n        minutes = math.floor(seconds / 60)\n        seconds -= minutes * 60\n        seconds = math.floor(seconds)\n\n        return (hours, minutes, seconds)\n\n    for key, value in cache.ram.storage.items():\n        if isinstance(value, dict):\n            ram[\'hits\'] = value[\'hit_total\'] - value[\'misses\']\n            ram[\'misses\'] = value[\'misses\']\n            try:\n                ram[\'ratio\'] = ram[\'hits\'] * 100 / value[\'hit_total\']\n            except (KeyError, ZeroDivisionError):\n                ram[\'ratio\'] = 0\n        else:\n            if hp:\n                ram[\'bytes\'] += hp.iso(value[1]).size\n                ram[\'objects\'] += hp.iso(value[1]).count\n            ram[\'entries\'] += 1\n            if value[0] < ram[\'oldest\']:\n                ram[\'oldest\'] = value[0]\n            ram[\'keys\'].append((key, GetInHMS(time.time() - value[0])))\n\n    locker = open(os.path.join(request.folder,\n                                        \'cache/cache.lock\'), \'a\')\n    portalocker.lock(locker, portalocker.LOCK_EX)\n    disk_storage = shelve.open(os.path.join(request.folder, \'cache/cache.shelve\'))\n    try:\n        for key, value in disk_storage.items():\n            if isinstance(value, dict):\n                disk[\'hits\'] = value[\'hit_total\'] - value[\'misses\']\n                disk[\'misses\'] = value[\'misses\']\n                try:\n                    disk[\'ratio\'] = disk[\'hits\'] * 100 / value[\'hit_total\']\n                except (KeyError, ZeroDivisionError):\n                    disk[\'ratio\'] = 0\n            else:\n                if hp:\n                    disk[\'bytes\'] += hp.iso(value[1]).size\n                    disk[\'objects\'] += hp.iso(value[1]).count\n                disk[\'entries\'] += 1\n                if value[0] < disk[\'oldest\']:\n                    disk[\'oldest\'] = value[0]\n                disk[\'keys\'].append((key, GetInHMS(time.time() - value[0])))\n\n    finally:\n        portalocker.unlock(locker)\n        locker.close()\n        disk_storage.close()\n\n    total[\'entries\'] = ram[\'entries\'] + disk[\'entries\']\n    total[\'bytes\'] = ram[\'bytes\'] + disk[\'bytes\']\n    total[\'objects\'] = ram[\'objects\'] + disk[\'objects\']\n    total[\'hits\'] = ram[\'hits\'] + disk[\'hits\']\n    total[\'misses\'] = ram[\'misses\'] + disk[\'misses\']\n    total[\'keys\'] = ram[\'keys\'] + disk[\'keys\']\n    try:\n        total[\'ratio\'] = total[\'hits\'] * 100 / (total[\'hits\'] + total[\'misses\'])\n    except (KeyError, ZeroDivisionError):\n        total[\'ratio\'] = 0\n\n    if disk[\'oldest\'] < ram[\'oldest\']:\n        total[\'oldest\'] = disk[\'oldest\']\n    else:\n        total[\'oldest\'] = ram[\'oldest\']\n\n    ram[\'oldest\'] = GetInHMS(time.time() - ram[\'oldest\'])\n    disk[\'oldest\'] = GetInHMS(time.time() - disk[\'oldest\'])\n    total[\'oldest\'] = GetInHMS(time.time() - total[\'oldest\'])\n\n    def key_table(keys):\n        return TABLE(\n            TR(TD(B(\'Key\')), TD(B(\'Time in Cache (h:m:s)\'))),\n            *[TR(TD(k[0]), TD(\'%02d:%02d:%02d\' % k[1])) for k in keys],\n            **dict(_class=\'cache-keys\',\n                   _style="border-collapse: separate; border-spacing: .5em;"))\n\n    ram[\'keys\'] = key_table(ram[\'keys\'])\n    disk[\'keys\'] = key_table(disk[\'keys\'])\n    total[\'keys\'] = key_table(total[\'keys\'])\n\n    return dict(form=form, total=total,\n                ram=ram, disk=disk, object_stats=hp != False)\n\n\n\n\nresponse._vars=response._caller(insert)\n'
p7
sS'snapshot'
p8
(dp9
S'exception'
p10
(dp11
S'__module__'
p12
S"'sqlite3'"
p13
sS'__getslice__'
p14
S"<method-wrapper '__getslice__' of IntegrityError object>"
p15
sS'__str__'
p16
S"<method-wrapper '__str__' of IntegrityError object>"
p17
sS'__reduce__'
p18
S'<built-in method __reduce__ of IntegrityError object>'
p19
sS'__dict__'
p20
S'{}'
p21
sS'__sizeof__'
p22
S'<built-in method __sizeof__ of IntegrityError object>'
p23
sS'__weakref__'
p24
S'None'
p25
sS'__init__'
p26
S"<method-wrapper '__init__' of IntegrityError object>"
p27
sS'__setattr__'
p28
S"<method-wrapper '__setattr__' of IntegrityError object>"
p29
sS'__reduce_ex__'
p30
S'<built-in method __reduce_ex__ of IntegrityError object>'
p31
sS'__new__'
p32
S'<built-in method __new__ of type object>'
p33
sS'__format__'
p34
S'<built-in method __format__ of IntegrityError object>'
p35
sS'__class__'
p36
S"<class 'sqlite3.IntegrityError'>"
p37
sS'__doc__'
p38
S'None'
p39
sS'__getitem__'
p40
S"<method-wrapper '__getitem__' of IntegrityError object>"
p41
sS'__setstate__'
p42
S'<built-in method __setstate__ of IntegrityError object>'
p43
sS'__getattribute__'
p44
S"<method-wrapper '__getattribute__' of IntegrityError object>"
p45
sS'args'
p46
S"('UNIQUE constraint failed: patient.email',)"
p47
sS'__subclasshook__'
p48
S'<built-in method __subclasshook__ of type object>'
p49
sS'__unicode__'
p50
S'<built-in method __unicode__ of IntegrityError object>'
p51
sS'__delattr__'
p52
S"<method-wrapper '__delattr__' of IntegrityError object>"
p53
sS'__repr__'
p54
S"<method-wrapper '__repr__' of IntegrityError object>"
p55
sS'__hash__'
p56
S"<method-wrapper '__hash__' of IntegrityError object>"
p57
ssS'evalue'
p58
S'UNIQUE constraint failed: patient.email'
p59
sS'request'
p60
ccopy_reg
_reconstructor
p61
(cgluon.html
BEAUTIFY
p62
c__builtin__
object
p63
NtRp64
(dp65
S'attributes'
p66
(dp67
sS'components'
p68
(lp69
g61
(cgluon.html
TABLE
p70
g63
NtRp71
(dp72
g66
(dp73
S'level'
p74
I5
ssS'parent'
p75
Nsg68
(lp76
g61
(cgluon.html
TR
p77
g63
NtRp78
(dp79
g66
(dp80
sg75
g71
sg68
(lp81
g61
(cgluon.html
TD
p82
g63
NtRp83
(dp84
g66
(dp85
S'_style'
p86
S'font-weight:bold;vertical-align:top'
p87
ssg75
g78
sg68
(lp88
S'ajax'
p89
asbag61
(g82
g63
NtRp90
(dp91
g66
(dp92
S'_valign'
p93
S'top'
p94
ssg75
g78
sg68
(lp95
S':'
asbag61
(g82
g63
NtRp96
(dp97
g66
(dp98
sg75
g78
sg68
(lp99
g61
(g62
g63
NtRp100
(dp101
g66
(dp102
g74
I5
ssg75
g96
sg68
(lp103
S'False'
p104
asbasbasbag61
(g77
g63
NtRp105
(dp106
g66
(dp107
sg75
g71
sg68
(lp108
g61
(g82
g63
NtRp109
(dp110
g66
(dp111
g86
g87
ssg75
g105
sg68
(lp112
S'application'
p113
asbag61
(g82
g63
NtRp114
(dp115
g66
(dp116
g93
g94
ssg75
g105
sg68
(lp117
S':'
asbag61
(g82
g63
NtRp118
(dp119
g66
(dp120
sg75
g105
sg68
(lp121
g61
(g62
g63
NtRp122
(dp123
g66
(dp124
g74
I5
ssg75
g118
sg68
(lp125
S'Aarogya'
p126
asbasbasbag61
(g77
g63
NtRp127
(dp128
g66
(dp129
sg75
g71
sg68
(lp130
g61
(g82
g63
NtRp131
(dp132
g66
(dp133
g86
g87
ssg75
g127
sg68
(lp134
g46
asbag61
(g82
g63
NtRp135
(dp136
g66
(dp137
g93
g94
ssg75
g127
sg68
(lp138
S':'
asbag61
(g82
g63
NtRp139
(dp140
g66
(dp141
sg75
g127
sg68
(lp142
g61
(g62
g63
NtRp143
(dp144
g66
(dp145
g74
I5
ssg75
g139
sg68
(lp146
g61
(g70
g63
NtRp147
(dp148
g66
(dp149
g74
I4
ssg75
Nsg68
(lp150
g61
(g77
g63
NtRp151
(dp152
g66
(dp153
sg75
g147
sg68
(lp154
g61
(g82
g63
NtRp155
(dp156
g66
(dp157
sg75
g151
sg68
(lp158
g61
(g62
g63
NtRp159
(dp160
g66
(dp161
g74
I4
ssg75
g155
sg68
(lp162
S'db'
p163
asbasbasbag61
(g77
g63
NtRp164
(dp165
g66
(dp166
sg75
g147
sg68
(lp167
g61
(g82
g63
NtRp168
(dp169
g66
(dp170
sg75
g164
sg68
(lp171
g61
(g62
g63
NtRp172
(dp173
g66
(dp174
g74
I4
ssg75
g168
sg68
(lp175
S'patient'
p176
asbasbasbasbasbasbasbag61
(g77
g63
NtRp177
(dp178
g66
(dp179
sg75
g71
sg68
(lp180
g61
(g82
g63
NtRp181
(dp182
g66
(dp183
g86
g87
ssg75
g177
sg68
(lp184
S'body'
p185
asbag61
(g82
g63
NtRp186
(dp187
g66
(dp188
g93
g94
ssg75
g177
sg68
(lp189
S':'
asbag61
(g82
g63
NtRp190
(dp191
g66
(dp192
sg75
g177
sg68
(lp193
g61
(g62
g63
NtRp194
(dp195
g66
(dp196
g74
I5
ssg75
g190
sg68
(lp197
S"<open file '<fdopen>', mode 'w+b' at 0x7f810017eb70>"
p198
asbasbasbag61
(g77
g63
NtRp199
(dp200
g66
(dp201
sg75
g71
sg68
(lp202
g61
(g82
g63
NtRp203
(dp204
g66
(dp205
g86
g87
ssg75
g199
sg68
(lp206
S'client'
p207
asbag61
(g82
g63
NtRp208
(dp209
g66
(dp210
g93
g94
ssg75
g199
sg68
(lp211
S':'
asbag61
(g82
g63
NtRp212
(dp213
g66
(dp214
sg75
g199
sg68
(lp215
g61
(g62
g63
NtRp216
(dp217
g66
(dp218
g74
I5
ssg75
g212
sg68
(lp219
S'127.0.0.1'
p220
asbasbasbag61
(g77
g63
NtRp221
(dp222
g66
(dp223
sg75
g71
sg68
(lp224
g61
(g82
g63
NtRp225
(dp226
g66
(dp227
g86
g87
ssg75
g221
sg68
(lp228
S'controller'
p229
asbag61
(g82
g63
NtRp230
(dp231
g66
(dp232
g93
g94
ssg75
g221
sg68
(lp233
S':'
asbag61
(g82
g63
NtRp234
(dp235
g66
(dp236
sg75
g221
sg68
(lp237
g61
(g62
g63
NtRp238
(dp239
g66
(dp240
g74
I5
ssg75
g234
sg68
(lp241
S'appadmin'
p242
asbasbasbag61
(g77
g63
NtRp243
(dp244
g66
(dp245
sg75
g71
sg68
(lp246
g61
(g82
g63
NtRp247
(dp248
g66
(dp249
g86
g87
ssg75
g243
sg68
(lp250
S'cookies'
p251
asbag61
(g82
g63
NtRp252
(dp253
g66
(dp254
g93
g94
ssg75
g243
sg68
(lp255
S':'
asbag61
(g82
g63
NtRp256
(dp257
g66
(dp258
sg75
g243
sg68
(lp259
g61
(g62
g63
NtRp260
(dp261
g66
(dp262
g74
I5
ssg75
g256
sg68
(lp263
g61
(g70
g63
NtRp264
(dp265
g66
(dp266
g74
I4
ssg75
Nsg68
(lp267
g61
(g77
g63
NtRp268
(dp269
g66
(dp270
sg75
g264
sg68
(lp271
g61
(g82
g63
NtRp272
(dp273
g66
(dp274
g86
g87
ssg75
g268
sg68
(lp275
S'session_id_aarogya'
p276
asbag61
(g82
g63
NtRp277
(dp278
g66
(dp279
g93
g94
ssg75
g268
sg68
(lp280
S':'
asbag61
(g82
g63
NtRp281
(dp282
g66
(dp283
sg75
g268
sg68
(lp284
g61
(g62
g63
NtRp285
(dp286
g66
(dp287
g74
I4
ssg75
g281
sg68
(lp288
g61
(g70
g63
NtRp289
(dp290
g66
(dp291
g74
I3
ssg75
Nsg68
(lp292
g61
(g77
g63
NtRp293
(dp294
g66
(dp295
sg75
g289
sg68
(lp296
g61
(g82
g63
NtRp297
(dp298
g66
(dp299
g86
g87
ssg75
g293
sg68
(lp300
S'comment'
p301
asbag61
(g82
g63
NtRp302
(dp303
g66
(dp304
g93
g94
ssg75
g293
sg68
(lp305
S':'
asbag61
(g82
g63
NtRp306
(dp307
g66
(dp308
sg75
g293
sg68
(lp309
g61
(g62
g63
NtRp310
(dp311
g66
(dp312
g74
I3
ssg75
g306
sg68
(lp313
S''
asbasbasbag61
(g77
g63
NtRp314
(dp315
g66
(dp316
sg75
g289
sg68
(lp317
g61
(g82
g63
NtRp318
(dp319
g66
(dp320
g86
g87
ssg75
g314
sg68
(lp321
S'domain'
p322
asbag61
(g82
g63
NtRp323
(dp324
g66
(dp325
g93
g94
ssg75
g314
sg68
(lp326
S':'
asbag61
(g82
g63
NtRp327
(dp328
g66
(dp329
sg75
g314
sg68
(lp330
g61
(g62
g63
NtRp331
(dp332
g66
(dp333
g74
I3
ssg75
g327
sg68
(lp334
S''
asbasbasbag61
(g77
g63
NtRp335
(dp336
g66
(dp337
sg75
g289
sg68
(lp338
g61
(g82
g63
NtRp339
(dp340
g66
(dp341
g86
g87
ssg75
g335
sg68
(lp342
S'expires'
p343
asbag61
(g82
g63
NtRp344
(dp345
g66
(dp346
g93
g94
ssg75
g335
sg68
(lp347
S':'
asbag61
(g82
g63
NtRp348
(dp349
g66
(dp350
sg75
g335
sg68
(lp351
g61
(g62
g63
NtRp352
(dp353
g66
(dp354
g74
I3
ssg75
g348
sg68
(lp355
S''
asbasbasbag61
(g77
g63
NtRp356
(dp357
g66
(dp358
sg75
g289
sg68
(lp359
g61
(g82
g63
NtRp360
(dp361
g66
(dp362
g86
g87
ssg75
g356
sg68
(lp363
S'httponly'
p364
asbag61
(g82
g63
NtRp365
(dp366
g66
(dp367
g93
g94
ssg75
g356
sg68
(lp368
S':'
asbag61
(g82
g63
NtRp369
(dp370
g66
(dp371
sg75
g356
sg68
(lp372
g61
(g62
g63
NtRp373
(dp374
g66
(dp375
g74
I3
ssg75
g369
sg68
(lp376
S''
asbasbasbag61
(g77
g63
NtRp377
(dp378
g66
(dp379
sg75
g289
sg68
(lp380
g61
(g82
g63
NtRp381
(dp382
g66
(dp383
g86
g87
ssg75
g377
sg68
(lp384
S'max-age'
p385
asbag61
(g82
g63
NtRp386
(dp387
g66
(dp388
g93
g94
ssg75
g377
sg68
(lp389
S':'
asbag61
(g82
g63
NtRp390
(dp391
g66
(dp392
sg75
g377
sg68
(lp393
g61
(g62
g63
NtRp394
(dp395
g66
(dp396
g74
I3
ssg75
g390
sg68
(lp397
S''
asbasbasbag61
(g77
g63
NtRp398
(dp399
g66
(dp400
sg75
g289
sg68
(lp401
g61
(g82
g63
NtRp402
(dp403
g66
(dp404
g86
g87
ssg75
g398
sg68
(lp405
S'path'
p406
asbag61
(g82
g63
NtRp407
(dp408
g66
(dp409
g93
g94
ssg75
g398
sg68
(lp410
S':'
asbag61
(g82
g63
NtRp411
(dp412
g66
(dp413
sg75
g398
sg68
(lp414
g61
(g62
g63
NtRp415
(dp416
g66
(dp417
g74
I3
ssg75
g411
sg68
(lp418
S''
asbasbasbag61
(g77
g63
NtRp419
(dp420
g66
(dp421
sg75
g289
sg68
(lp422
g61
(g82
g63
NtRp423
(dp424
g66
(dp425
g86
g87
ssg75
g419
sg68
(lp426
S'secure'
p427
asbag61
(g82
g63
NtRp428
(dp429
g66
(dp430
g93
g94
ssg75
g419
sg68
(lp431
S':'
asbag61
(g82
g63
NtRp432
(dp433
g66
(dp434
sg75
g419
sg68
(lp435
g61
(g62
g63
NtRp436
(dp437
g66
(dp438
g74
I3
ssg75
g432
sg68
(lp439
S''
asbasbasbag61
(g77
g63
NtRp440
(dp441
g66
(dp442
sg75
g289
sg68
(lp443
g61
(g82
g63
NtRp444
(dp445
g66
(dp446
g86
g87
ssg75
g440
sg68
(lp447
S'version'
p448
asbag61
(g82
g63
NtRp449
(dp450
g66
(dp451
g93
g94
ssg75
g440
sg68
(lp452
S':'
asbag61
(g82
g63
NtRp453
(dp454
g66
(dp455
sg75
g440
sg68
(lp456
g61
(g62
g63
NtRp457
(dp458
g66
(dp459
g74
I3
ssg75
g453
sg68
(lp460
S''
asbasbasbasbasbasbasbag61
(g77
g63
NtRp461
(dp462
g66
(dp463
sg75
g264
sg68
(lp464
g61
(g82
g63
NtRp465
(dp466
g66
(dp467
g86
g87
ssg75
g461
sg68
(lp468
S'session_id_admin'
p469
asbag61
(g82
g63
NtRp470
(dp471
g66
(dp472
g93
g94
ssg75
g461
sg68
(lp473
S':'
asbag61
(g82
g63
NtRp474
(dp475
g66
(dp476
sg75
g461
sg68
(lp477
g61
(g62
g63
NtRp478
(dp479
g66
(dp480
g74
I4
ssg75
g474
sg68
(lp481
g61
(g70
g63
NtRp482
(dp483
g66
(dp484
g74
I3
ssg75
Nsg68
(lp485
g61
(g77
g63
NtRp486
(dp487
g66
(dp488
sg75
g482
sg68
(lp489
g61
(g82
g63
NtRp490
(dp491
g66
(dp492
g86
g87
ssg75
g486
sg68
(lp493
g301
asbag61
(g82
g63
NtRp494
(dp495
g66
(dp496
g93
g94
ssg75
g486
sg68
(lp497
S':'
asbag61
(g82
g63
NtRp498
(dp499
g66
(dp500
sg75
g486
sg68
(lp501
g61
(g62
g63
NtRp502
(dp503
g66
(dp504
g74
I3
ssg75
g498
sg68
(lp505
S''
asbasbasbag61
(g77
g63
NtRp506
(dp507
g66
(dp508
sg75
g482
sg68
(lp509
g61
(g82
g63
NtRp510
(dp511
g66
(dp512
g86
g87
ssg75
g506
sg68
(lp513
g322
asbag61
(g82
g63
NtRp514
(dp515
g66
(dp516
g93
g94
ssg75
g506
sg68
(lp517
S':'
asbag61
(g82
g63
NtRp518
(dp519
g66
(dp520
sg75
g506
sg68
(lp521
g61
(g62
g63
NtRp522
(dp523
g66
(dp524
g74
I3
ssg75
g518
sg68
(lp525
S''
asbasbasbag61
(g77
g63
NtRp526
(dp527
g66
(dp528
sg75
g482
sg68
(lp529
g61
(g82
g63
NtRp530
(dp531
g66
(dp532
g86
g87
ssg75
g526
sg68
(lp533
g343
asbag61
(g82
g63
NtRp534
(dp535
g66
(dp536
g93
g94
ssg75
g526
sg68
(lp537
S':'
asbag61
(g82
g63
NtRp538
(dp539
g66
(dp540
sg75
g526
sg68
(lp541
g61
(g62
g63
NtRp542
(dp543
g66
(dp544
g74
I3
ssg75
g538
sg68
(lp545
S''
asbasbasbag61
(g77
g63
NtRp546
(dp547
g66
(dp548
sg75
g482
sg68
(lp549
g61
(g82
g63
NtRp550
(dp551
g66
(dp552
g86
g87
ssg75
g546
sg68
(lp553
g364
asbag61
(g82
g63
NtRp554
(dp555
g66
(dp556
g93
g94
ssg75
g546
sg68
(lp557
S':'
asbag61
(g82
g63
NtRp558
(dp559
g66
(dp560
sg75
g546
sg68
(lp561
g61
(g62
g63
NtRp562
(dp563
g66
(dp564
g74
I3
ssg75
g558
sg68
(lp565
S''
asbasbasbag61
(g77
g63
NtRp566
(dp567
g66
(dp568
sg75
g482
sg68
(lp569
g61
(g82
g63
NtRp570
(dp571
g66
(dp572
g86
g87
ssg75
g566
sg68
(lp573
g385
asbag61
(g82
g63
NtRp574
(dp575
g66
(dp576
g93
g94
ssg75
g566
sg68
(lp577
S':'
asbag61
(g82
g63
NtRp578
(dp579
g66
(dp580
sg75
g566
sg68
(lp581
g61
(g62
g63
NtRp582
(dp583
g66
(dp584
g74
I3
ssg75
g578
sg68
(lp585
S''
asbasbasbag61
(g77
g63
NtRp586
(dp587
g66
(dp588
sg75
g482
sg68
(lp589
g61
(g82
g63
NtRp590
(dp591
g66
(dp592
g86
g87
ssg75
g586
sg68
(lp593
g406
asbag61
(g82
g63
NtRp594
(dp595
g66
(dp596
g93
g94
ssg75
g586
sg68
(lp597
S':'
asbag61
(g82
g63
NtRp598
(dp599
g66
(dp600
sg75
g586
sg68
(lp601
g61
(g62
g63
NtRp602
(dp603
g66
(dp604
g74
I3
ssg75
g598
sg68
(lp605
S''
asbasbasbag61
(g77
g63
NtRp606
(dp607
g66
(dp608
sg75
g482
sg68
(lp609
g61
(g82
g63
NtRp610
(dp611
g66
(dp612
g86
g87
ssg75
g606
sg68
(lp613
g427
asbag61
(g82
g63
NtRp614
(dp615
g66
(dp616
g93
g94
ssg75
g606
sg68
(lp617
S':'
asbag61
(g82
g63
NtRp618
(dp619
g66
(dp620
sg75
g606
sg68
(lp621
g61
(g62
g63
NtRp622
(dp623
g66
(dp624
g74
I3
ssg75
g618
sg68
(lp625
S''
asbasbasbag61
(g77
g63
NtRp626
(dp627
g66
(dp628
sg75
g482
sg68
(lp629
g61
(g82
g63
NtRp630
(dp631
g66
(dp632
g86
g87
ssg75
g626
sg68
(lp633
g448
asbag61
(g82
g63
NtRp634
(dp635
g66
(dp636
g93
g94
ssg75
g626
sg68
(lp637
S':'
asbag61
(g82
g63
NtRp638
(dp639
g66
(dp640
sg75
g626
sg68
(lp641
g61
(g62
g63
NtRp642
(dp643
g66
(dp644
g74
I3
ssg75
g638
sg68
(lp645
S''
asbasbasbasbasbasbasbag61
(g77
g63
NtRp646
(dp647
g66
(dp648
sg75
g264
sg68
(lp649
g61
(g82
g63
NtRp650
(dp651
g66
(dp652
g86
g87
ssg75
g646
sg68
(lp653
S'session_id_welcome'
p654
asbag61
(g82
g63
NtRp655
(dp656
g66
(dp657
g93
g94
ssg75
g646
sg68
(lp658
S':'
asbag61
(g82
g63
NtRp659
(dp660
g66
(dp661
sg75
g646
sg68
(lp662
g61
(g62
g63
NtRp663
(dp664
g66
(dp665
g74
I4
ssg75
g659
sg68
(lp666
g61
(g70
g63
NtRp667
(dp668
g66
(dp669
g74
I3
ssg75
Nsg68
(lp670
g61
(g77
g63
NtRp671
(dp672
g66
(dp673
sg75
g667
sg68
(lp674
g61
(g82
g63
NtRp675
(dp676
g66
(dp677
g86
g87
ssg75
g671
sg68
(lp678
g301
asbag61
(g82
g63
NtRp679
(dp680
g66
(dp681
g93
g94
ssg75
g671
sg68
(lp682
S':'
asbag61
(g82
g63
NtRp683
(dp684
g66
(dp685
sg75
g671
sg68
(lp686
g61
(g62
g63
NtRp687
(dp688
g66
(dp689
g74
I3
ssg75
g683
sg68
(lp690
S''
asbasbasbag61
(g77
g63
NtRp691
(dp692
g66
(dp693
sg75
g667
sg68
(lp694
g61
(g82
g63
NtRp695
(dp696
g66
(dp697
g86
g87
ssg75
g691
sg68
(lp698
g322
asbag61
(g82
g63
NtRp699
(dp700
g66
(dp701
g93
g94
ssg75
g691
sg68
(lp702
S':'
asbag61
(g82
g63
NtRp703
(dp704
g66
(dp705
sg75
g691
sg68
(lp706
g61
(g62
g63
NtRp707
(dp708
g66
(dp709
g74
I3
ssg75
g703
sg68
(lp710
S''
asbasbasbag61
(g77
g63
NtRp711
(dp712
g66
(dp713
sg75
g667
sg68
(lp714
g61
(g82
g63
NtRp715
(dp716
g66
(dp717
g86
g87
ssg75
g711
sg68
(lp718
g343
asbag61
(g82
g63
NtRp719
(dp720
g66
(dp721
g93
g94
ssg75
g711
sg68
(lp722
S':'
asbag61
(g82
g63
NtRp723
(dp724
g66
(dp725
sg75
g711
sg68
(lp726
g61
(g62
g63
NtRp727
(dp728
g66
(dp729
g74
I3
ssg75
g723
sg68
(lp730
S''
asbasbasbag61
(g77
g63
NtRp731
(dp732
g66
(dp733
sg75
g667
sg68
(lp734
g61
(g82
g63
NtRp735
(dp736
g66
(dp737
g86
g87
ssg75
g731
sg68
(lp738
g364
asbag61
(g82
g63
NtRp739
(dp740
g66
(dp741
g93
g94
ssg75
g731
sg68
(lp742
S':'
asbag61
(g82
g63
NtRp743
(dp744
g66
(dp745
sg75
g731
sg68
(lp746
g61
(g62
g63
NtRp747
(dp748
g66
(dp749
g74
I3
ssg75
g743
sg68
(lp750
S''
asbasbasbag61
(g77
g63
NtRp751
(dp752
g66
(dp753
sg75
g667
sg68
(lp754
g61
(g82
g63
NtRp755
(dp756
g66
(dp757
g86
g87
ssg75
g751
sg68
(lp758
g385
asbag61
(g82
g63
NtRp759
(dp760
g66
(dp761
g93
g94
ssg75
g751
sg68
(lp762
S':'
asbag61
(g82
g63
NtRp763
(dp764
g66
(dp765
sg75
g751
sg68
(lp766
g61
(g62
g63
NtRp767
(dp768
g66
(dp769
g74
I3
ssg75
g763
sg68
(lp770
S''
asbasbasbag61
(g77
g63
NtRp771
(dp772
g66
(dp773
sg75
g667
sg68
(lp774
g61
(g82
g63
NtRp775
(dp776
g66
(dp777
g86
g87
ssg75
g771
sg68
(lp778
g406
asbag61
(g82
g63
NtRp779
(dp780
g66
(dp781
g93
g94
ssg75
g771
sg68
(lp782
S':'
asbag61
(g82
g63
NtRp783
(dp784
g66
(dp785
sg75
g771
sg68
(lp786
g61
(g62
g63
NtRp787
(dp788
g66
(dp789
g74
I3
ssg75
g783
sg68
(lp790
S''
asbasbasbag61
(g77
g63
NtRp791
(dp792
g66
(dp793
sg75
g667
sg68
(lp794
g61
(g82
g63
NtRp795
(dp796
g66
(dp797
g86
g87
ssg75
g791
sg68
(lp798
g427
asbag61
(g82
g63
NtRp799
(dp800
g66
(dp801
g93
g94
ssg75
g791
sg68
(lp802
S':'
asbag61
(g82
g63
NtRp803
(dp804
g66
(dp805
sg75
g791
sg68
(lp806
g61
(g62
g63
NtRp807
(dp808
g66
(dp809
g74
I3
ssg75
g803
sg68
(lp810
S''
asbasbasbag61
(g77
g63
NtRp811
(dp812
g66
(dp813
sg75
g667
sg68
(lp814
g61
(g82
g63
NtRp815
(dp816
g66
(dp817
g86
g87
ssg75
g811
sg68
(lp818
g448
asbag61
(g82
g63
NtRp819
(dp820
g66
(dp821
g93
g94
ssg75
g811
sg68
(lp822
S':'
asbag61
(g82
g63
NtRp823
(dp824
g66
(dp825
sg75
g811
sg68
(lp826
g61
(g62
g63
NtRp827
(dp828
g66
(dp829
g74
I3
ssg75
g823
sg68
(lp830
S''
asbasbasbasbasbasbasbasbasbasbasbag61
(g77
g63
NtRp831
(dp832
g66
(dp833
sg75
g71
sg68
(lp834
g61
(g82
g63
NtRp835
(dp836
g66
(dp837
g86
g87
ssg75
g831
sg68
(lp838
S'env'
p839
asbag61
(g82
g63
NtRp840
(dp841
g66
(dp842
g93
g94
ssg75
g831
sg68
(lp843
S':'
asbag61
(g82
g63
NtRp844
(dp845
g66
(dp846
sg75
g831
sg68
(lp847
g61
(g62
g63
NtRp848
(dp849
g66
(dp850
g74
I5
ssg75
g844
sg68
(lp851
g61
(g70
g63
NtRp852
(dp853
g66
(dp854
g74
I4
ssg75
Nsg68
(lp855
g61
(g77
g63
NtRp856
(dp857
g66
(dp858
sg75
g852
sg68
(lp859
g61
(g82
g63
NtRp860
(dp861
g66
(dp862
g86
g87
ssg75
g856
sg68
(lp863
S'app_folders'
p864
asbag61
(g82
g63
NtRp865
(dp866
g66
(dp867
g93
g94
ssg75
g856
sg68
(lp868
S':'
asbag61
(g82
g63
NtRp869
(dp870
g66
(dp871
sg75
g856
sg68
(lp872
g61
(g62
g63
NtRp873
(dp874
g66
(dp875
g74
I4
ssg75
g869
sg68
(lp876
S"set(['/home/rehas/web2py/applications/Aarogya/', '/home/rehas/web2py/applications/admin/', '/home/rehas/web2py/applications/welcome/'])"
p877
asbasbasbag61
(g77
g63
NtRp878
(dp879
g66
(dp880
sg75
g852
sg68
(lp881
g61
(g82
g63
NtRp882
(dp883
g66
(dp884
g86
g87
ssg75
g878
sg68
(lp885
S'applications_parent'
p886
asbag61
(g82
g63
NtRp887
(dp888
g66
(dp889
g93
g94
ssg75
g878
sg68
(lp890
S':'
asbag61
(g82
g63
NtRp891
(dp892
g66
(dp893
sg75
g878
sg68
(lp894
g61
(g62
g63
NtRp895
(dp896
g66
(dp897
g74
I4
ssg75
g891
sg68
(lp898
S'/home/rehas/web2py'
p899
asbasbasbag61
(g77
g63
NtRp900
(dp901
g66
(dp902
sg75
g852
sg68
(lp903
g61
(g82
g63
NtRp904
(dp905
g66
(dp906
g86
g87
ssg75
g900
sg68
(lp907
S'cmd_args'
p908
asbag61
(g82
g63
NtRp909
(dp910
g66
(dp911
g93
g94
ssg75
g900
sg68
(lp912
S':'
asbag61
(g82
g63
NtRp913
(dp914
g66
(dp915
sg75
g900
sg68
(lp916
g61
(g62
g63
NtRp917
(dp918
g66
(dp919
g74
I4
ssg75
g913
sg68
(lp920
g61
(g70
g63
NtRp921
(dp922
g66
(dp923
g74
I3
ssg75
Nsg68
(lp924
sbasbasbasbag61
(g77
g63
NtRp925
(dp926
g66
(dp927
sg75
g852
sg68
(lp928
g61
(g82
g63
NtRp929
(dp930
g66
(dp931
g86
g87
ssg75
g925
sg68
(lp932
S'cmd_options'
p933
asbag61
(g82
g63
NtRp934
(dp935
g66
(dp936
g93
g94
ssg75
g925
sg68
(lp937
S':'
asbag61
(g82
g63
NtRp938
(dp939
g66
(dp940
sg75
g925
sg68
(lp941
g61
(g62
g63
NtRp942
(dp943
g66
(dp944
g74
I4
ssg75
g938
sg68
(lp945
S"<Values at 0x7f81342cf440: {'verbose': False, 'ip': '127.0.0.1', 'shutdown_timeout': 5, 'taskbar': False, 'nocron': False, 'pid_filename': 'httpserver.pid', 'maxthreads': None, 'softcron': False, 'server_name': 'Toblerone', 'bpython': False, 'nogui': False, 'port': 8000, 'extcron': False, 'debuglevel': 30, 'test': None, 'folder': '/home/rehas/web2py', 'config': '', 'import_models': False, 'winservice': '', 'shell': None, 'run': '', 'log_filename': 'httpserver.log', 'args': [''], 'socket_timeout': 5, 'ssl_ca_certificate': None, 'scheduler': None, 'profiler_filename': None, 'ssl_private_key': '', 'password': '<ask>', 'request_queue_size': 5, 'ssl_certificate': '', 'cronjob': False, 'numthreads': None, 'quiet': False, 'interfaces': None, 'minthreads': None, 'timeout': 10, 'plain': False, 'nobanner': False}>"
p946
asbasbasbag61
(g77
g63
NtRp947
(dp948
g66
(dp949
sg75
g852
sg68
(lp950
g61
(g82
g63
NtRp951
(dp952
g66
(dp953
g86
g87
ssg75
g947
sg68
(lp954
S'content_length'
p955
asbag61
(g82
g63
NtRp956
(dp957
g66
(dp958
g93
g94
ssg75
g947
sg68
(lp959
S':'
asbag61
(g82
g63
NtRp960
(dp961
g66
(dp962
sg75
g947
sg68
(lp963
g61
(g62
g63
NtRp964
(dp965
g66
(dp966
g74
I4
ssg75
g960
sg68
(lp967
S'1352'
p968
asbasbasbag61
(g77
g63
NtRp969
(dp970
g66
(dp971
sg75
g852
sg68
(lp972
g61
(g82
g63
NtRp973
(dp974
g66
(dp975
g86
g87
ssg75
g969
sg68
(lp976
S'content_type'
p977
asbag61
(g82
g63
NtRp978
(dp979
g66
(dp980
g93
g94
ssg75
g969
sg68
(lp981
S':'
asbag61
(g82
g63
NtRp982
(dp983
g66
(dp984
sg75
g969
sg68
(lp985
g61
(g62
g63
NtRp986
(dp987
g66
(dp988
g74
I4
ssg75
g982
sg68
(lp989
S'multipart/form-data; boundary=----WebKitFormBoundaryJRrPbxZAPRl1kNI8'
p990
asbasbasbag61
(g77
g63
NtRp991
(dp992
g66
(dp993
sg75
g852
sg68
(lp994
g61
(g82
g63
NtRp995
(dp996
g66
(dp997
g86
g87
ssg75
g991
sg68
(lp998
S'db_sessions'
p999
asbag61
(g82
g63
NtRp1000
(dp1001
g66
(dp1002
g93
g94
ssg75
g991
sg68
(lp1003
S':'
asbag61
(g82
g63
NtRp1004
(dp1005
g66
(dp1006
sg75
g991
sg68
(lp1007
g61
(g62
g63
NtRp1008
(dp1009
g66
(dp1010
g74
I4
ssg75
g1004
sg68
(lp1011
S'set([])'
p1012
asbasbasbag61
(g77
g63
NtRp1013
(dp1014
g66
(dp1015
sg75
g852
sg68
(lp1016
g61
(g82
g63
NtRp1017
(dp1018
g66
(dp1019
g86
g87
ssg75
g1013
sg68
(lp1020
S'debugging'
p1021
asbag61
(g82
g63
NtRp1022
(dp1023
g66
(dp1024
g93
g94
ssg75
g1013
sg68
(lp1025
S':'
asbag61
(g82
g63
NtRp1026
(dp1027
g66
(dp1028
sg75
g1013
sg68
(lp1029
g61
(g62
g63
NtRp1030
(dp1031
g66
(dp1032
g74
I4
ssg75
g1026
sg68
(lp1033
g104
asbasbasbag61
(g77
g63
NtRp1034
(dp1035
g66
(dp1036
sg75
g852
sg68
(lp1037
g61
(g82
g63
NtRp1038
(dp1039
g66
(dp1040
g86
g87
ssg75
g1034
sg68
(lp1041
S'gluon_parent'
p1042
asbag61
(g82
g63
NtRp1043
(dp1044
g66
(dp1045
g93
g94
ssg75
g1034
sg68
(lp1046
S':'
asbag61
(g82
g63
NtRp1047
(dp1048
g66
(dp1049
sg75
g1034
sg68
(lp1050
g61
(g62
g63
NtRp1051
(dp1052
g66
(dp1053
g74
I4
ssg75
g1047
sg68
(lp1054
S'/usr/share/web2py'
p1055
asbasbasbag61
(g77
g63
NtRp1056
(dp1057
g66
(dp1058
sg75
g852
sg68
(lp1059
g61
(g82
g63
NtRp1060
(dp1061
g66
(dp1062
g86
g87
ssg75
g1056
sg68
(lp1063
S'http_accept'
p1064
asbag61
(g82
g63
NtRp1065
(dp1066
g66
(dp1067
g93
g94
ssg75
g1056
sg68
(lp1068
S':'
asbag61
(g82
g63
NtRp1069
(dp1070
g66
(dp1071
sg75
g1056
sg68
(lp1072
g61
(g62
g63
NtRp1073
(dp1074
g66
(dp1075
g74
I4
ssg75
g1069
sg68
(lp1076
S'text/html,application/xhtml+xml,application/xml;q=0.9,image/webp,*/*;q=0.8'
p1077
asbasbasbag61
(g77
g63
NtRp1078
(dp1079
g66
(dp1080
sg75
g852
sg68
(lp1081
g61
(g82
g63
NtRp1082
(dp1083
g66
(dp1084
g86
g87
ssg75
g1078
sg68
(lp1085
S'http_accept_encoding'
p1086
asbag61
(g82
g63
NtRp1087
(dp1088
g66
(dp1089
g93
g94
ssg75
g1078
sg68
(lp1090
S':'
asbag61
(g82
g63
NtRp1091
(dp1092
g66
(dp1093
sg75
g1078
sg68
(lp1094
g61
(g62
g63
NtRp1095
(dp1096
g66
(dp1097
g74
I4
ssg75
g1091
sg68
(lp1098
S'gzip, deflate'
p1099
asbasbasbag61
(g77
g63
NtRp1100
(dp1101
g66
(dp1102
sg75
g852
sg68
(lp1103
g61
(g82
g63
NtRp1104
(dp1105
g66
(dp1106
g86
g87
ssg75
g1100
sg68
(lp1107
S'http_accept_language'
p1108
asbag61
(g82
g63
NtRp1109
(dp1110
g66
(dp1111
g93
g94
ssg75
g1100
sg68
(lp1112
S':'
asbag61
(g82
g63
NtRp1113
(dp1114
g66
(dp1115
sg75
g1100
sg68
(lp1116
g61
(g62
g63
NtRp1117
(dp1118
g66
(dp1119
g74
I4
ssg75
g1113
sg68
(lp1120
S'en-US,en;q=0.8'
p1121
asbasbasbag61
(g77
g63
NtRp1122
(dp1123
g66
(dp1124
sg75
g852
sg68
(lp1125
g61
(g82
g63
NtRp1126
(dp1127
g66
(dp1128
g86
g87
ssg75
g1122
sg68
(lp1129
S'http_cache_control'
p1130
asbag61
(g82
g63
NtRp1131
(dp1132
g66
(dp1133
g93
g94
ssg75
g1122
sg68
(lp1134
S':'
asbag61
(g82
g63
NtRp1135
(dp1136
g66
(dp1137
sg75
g1122
sg68
(lp1138
g61
(g62
g63
NtRp1139
(dp1140
g66
(dp1141
g74
I4
ssg75
g1135
sg68
(lp1142
S'max-age=0'
p1143
asbasbasbag61
(g77
g63
NtRp1144
(dp1145
g66
(dp1146
sg75
g852
sg68
(lp1147
g61
(g82
g63
NtRp1148
(dp1149
g66
(dp1150
g86
g87
ssg75
g1144
sg68
(lp1151
S'http_connection'
p1152
asbag61
(g82
g63
NtRp1153
(dp1154
g66
(dp1155
g93
g94
ssg75
g1144
sg68
(lp1156
S':'
asbag61
(g82
g63
NtRp1157
(dp1158
g66
(dp1159
sg75
g1144
sg68
(lp1160
g61
(g62
g63
NtRp1161
(dp1162
g66
(dp1163
g74
I4
ssg75
g1157
sg68
(lp1164
S'keep-alive'
p1165
asbasbasbag61
(g77
g63
NtRp1166
(dp1167
g66
(dp1168
sg75
g852
sg68
(lp1169
g61
(g82
g63
NtRp1170
(dp1171
g66
(dp1172
g86
g87
ssg75
g1166
sg68
(lp1173
S'http_content_length'
p1174
asbag61
(g82
g63
NtRp1175
(dp1176
g66
(dp1177
g93
g94
ssg75
g1166
sg68
(lp1178
S':'
asbag61
(g82
g63
NtRp1179
(dp1180
g66
(dp1181
sg75
g1166
sg68
(lp1182
g61
(g62
g63
NtRp1183
(dp1184
g66
(dp1185
g74
I4
ssg75
g1179
sg68
(lp1186
g968
asbasbasbag61
(g77
g63
NtRp1187
(dp1188
g66
(dp1189
sg75
g852
sg68
(lp1190
g61
(g82
g63
NtRp1191
(dp1192
g66
(dp1193
g86
g87
ssg75
g1187
sg68
(lp1194
S'http_content_type'
p1195
asbag61
(g82
g63
NtRp1196
(dp1197
g66
(dp1198
g93
g94
ssg75
g1187
sg68
(lp1199
S':'
asbag61
(g82
g63
NtRp1200
(dp1201
g66
(dp1202
sg75
g1187
sg68
(lp1203
g61
(g62
g63
NtRp1204
(dp1205
g66
(dp1206
g74
I4
ssg75
g1200
sg68
(lp1207
g990
asbasbasbag61
(g77
g63
NtRp1208
(dp1209
g66
(dp1210
sg75
g852
sg68
(lp1211
g61
(g82
g63
NtRp1212
(dp1213
g66
(dp1214
g86
g87
ssg75
g1208
sg68
(lp1215
S'http_cookie'
p1216
asbag61
(g82
g63
NtRp1217
(dp1218
g66
(dp1219
g93
g94
ssg75
g1208
sg68
(lp1220
S':'
asbag61
(g82
g63
NtRp1221
(dp1222
g66
(dp1223
sg75
g1208
sg68
(lp1224
g61
(g62
g63
NtRp1225
(dp1226
g66
(dp1227
g74
I4
ssg75
g1221
sg68
(lp1228
S'session_id_welcome=127.0.0.1-08d6a30c-57df-41e8-9493-f779e3352903; session_id_admin=127.0.0.1-c4e18689-7edb-46fd-8f71-56a9dfe558f0; session_id_aarogya=127.0.0.1-e2ba3789-4d9c-48e7-a17b-bf51d819a3ae'
p1229
asbasbasbag61
(g77
g63
NtRp1230
(dp1231
g66
(dp1232
sg75
g852
sg68
(lp1233
g61
(g82
g63
NtRp1234
(dp1235
g66
(dp1236
g86
g87
ssg75
g1230
sg68
(lp1237
S'http_host'
p1238
asbag61
(g82
g63
NtRp1239
(dp1240
g66
(dp1241
g93
g94
ssg75
g1230
sg68
(lp1242
S':'
asbag61
(g82
g63
NtRp1243
(dp1244
g66
(dp1245
sg75
g1230
sg68
(lp1246
g61
(g62
g63
NtRp1247
(dp1248
g66
(dp1249
g74
I4
ssg75
g1243
sg68
(lp1250
S'127.0.0.1:8000'
p1251
asbasbasbag61
(g77
g63
NtRp1252
(dp1253
g66
(dp1254
sg75
g852
sg68
(lp1255
g61
(g82
g63
NtRp1256
(dp1257
g66
(dp1258
g86
g87
ssg75
g1252
sg68
(lp1259
S'http_origin'
p1260
asbag61
(g82
g63
NtRp1261
(dp1262
g66
(dp1263
g93
g94
ssg75
g1252
sg68
(lp1264
S':'
asbag61
(g82
g63
NtRp1265
(dp1266
g66
(dp1267
sg75
g1252
sg68
(lp1268
g61
(g62
g63
NtRp1269
(dp1270
g66
(dp1271
g74
I4
ssg75
g1265
sg68
(lp1272
S'http://127.0.0.1:8000'
p1273
asbasbasbag61
(g77
g63
NtRp1274
(dp1275
g66
(dp1276
sg75
g852
sg68
(lp1277
g61
(g82
g63
NtRp1278
(dp1279
g66
(dp1280
g86
g87
ssg75
g1274
sg68
(lp1281
S'http_referer'
p1282
asbag61
(g82
g63
NtRp1283
(dp1284
g66
(dp1285
g93
g94
ssg75
g1274
sg68
(lp1286
S':'
asbag61
(g82
g63
NtRp1287
(dp1288
g66
(dp1289
sg75
g1274
sg68
(lp1290
g61
(g62
g63
NtRp1291
(dp1292
g66
(dp1293
g74
I4
ssg75
g1287
sg68
(lp1294
S'http://127.0.0.1:8000/Aarogya/appadmin/insert/db/patient'
p1295
asbasbasbag61
(g77
g63
NtRp1296
(dp1297
g66
(dp1298
sg75
g852
sg68
(lp1299
g61
(g82
g63
NtRp1300
(dp1301
g66
(dp1302
g86
g87
ssg75
g1296
sg68
(lp1303
S'http_user_agent'
p1304
asbag61
(g82
g63
NtRp1305
(dp1306
g66
(dp1307
g93
g94
ssg75
g1296
sg68
(lp1308
S':'
asbag61
(g82
g63
NtRp1309
(dp1310
g66
(dp1311
sg75
g1296
sg68
(lp1312
g61
(g62
g63
NtRp1313
(dp1314
g66
(dp1315
g74
I4
ssg75
g1309
sg68
(lp1316
S'Mozilla/5.0 (X11; Linux x86_64) AppleWebKit/537.36 (KHTML, like Gecko) Chrome/41.0.2272.101 Safari/537.36'
p1317
asbasbasbag61
(g77
g63
NtRp1318
(dp1319
g66
(dp1320
sg75
g852
sg68
(lp1321
g61
(g82
g63
NtRp1322
(dp1323
g66
(dp1324
g86
g87
ssg75
g1318
sg68
(lp1325
S'is_jython'
p1326
asbag61
(g82
g63
NtRp1327
(dp1328
g66
(dp1329
g93
g94
ssg75
g1318
sg68
(lp1330
S':'
asbag61
(g82
g63
NtRp1331
(dp1332
g66
(dp1333
sg75
g1318
sg68
(lp1334
g61
(g62
g63
NtRp1335
(dp1336
g66
(dp1337
g74
I4
ssg75
g1331
sg68
(lp1338
g104
asbasbasbag61
(g77
g63
NtRp1339
(dp1340
g66
(dp1341
sg75
g852
sg68
(lp1342
g61
(g82
g63
NtRp1343
(dp1344
g66
(dp1345
g86
g87
ssg75
g1339
sg68
(lp1346
S'is_pypy'
p1347
asbag61
(g82
g63
NtRp1348
(dp1349
g66
(dp1350
g93
g94
ssg75
g1339
sg68
(lp1351
S':'
asbag61
(g82
g63
NtRp1352
(dp1353
g66
(dp1354
sg75
g1339
sg68
(lp1355
g61
(g62
g63
NtRp1356
(dp1357
g66
(dp1358
g74
I4
ssg75
g1352
sg68
(lp1359
g104
asbasbasbag61
(g77
g63
NtRp1360
(dp1361
g66
(dp1362
sg75
g852
sg68
(lp1363
g61
(g82
g63
NtRp1364
(dp1365
g66
(dp1366
g86
g87
ssg75
g1360
sg68
(lp1367
S'path_info'
p1368
asbag61
(g82
g63
NtRp1369
(dp1370
g66
(dp1371
g93
g94
ssg75
g1360
sg68
(lp1372
S':'
asbag61
(g82
g63
NtRp1373
(dp1374
g66
(dp1375
sg75
g1360
sg68
(lp1376
g61
(g62
g63
NtRp1377
(dp1378
g66
(dp1379
g74
I4
ssg75
g1373
sg68
(lp1380
S'/Aarogya/appadmin/insert/db/patient'
p1381
asbasbasbag61
(g77
g63
NtRp1382
(dp1383
g66
(dp1384
sg75
g852
sg68
(lp1385
g61
(g82
g63
NtRp1386
(dp1387
g66
(dp1388
g86
g87
ssg75
g1382
sg68
(lp1389
S'query_string'
p1390
asbag61
(g82
g63
NtRp1391
(dp1392
g66
(dp1393
g93
g94
ssg75
g1382
sg68
(lp1394
S':'
asbag61
(g82
g63
NtRp1395
(dp1396
g66
(dp1397
sg75
g1382
sg68
(lp1398
g61
(g62
g63
NtRp1399
(dp1400
g66
(dp1401
g74
I4
ssg75
g1395
sg68
(lp1402
S''
asbasbasbag61
(g77
g63
NtRp1403
(dp1404
g66
(dp1405
sg75
g852
sg68
(lp1406
g61
(g82
g63
NtRp1407
(dp1408
g66
(dp1409
g86
g87
ssg75
g1403
sg68
(lp1410
S'remote_addr'
p1411
asbag61
(g82
g63
NtRp1412
(dp1413
g66
(dp1414
g93
g94
ssg75
g1403
sg68
(lp1415
S':'
asbag61
(g82
g63
NtRp1416
(dp1417
g66
(dp1418
sg75
g1403
sg68
(lp1419
g61
(g62
g63
NtRp1420
(dp1421
g66
(dp1422
g74
I4
ssg75
g1416
sg68
(lp1423
g220
asbasbasbag61
(g77
g63
NtRp1424
(dp1425
g66
(dp1426
sg75
g852
sg68
(lp1427
g61
(g82
g63
NtRp1428
(dp1429
g66
(dp1430
g86
g87
ssg75
g1424
sg68
(lp1431
S'remote_port'
p1432
asbag61
(g82
g63
NtRp1433
(dp1434
g66
(dp1435
g93
g94
ssg75
g1424
sg68
(lp1436
S':'
asbag61
(g82
g63
NtRp1437
(dp1438
g66
(dp1439
sg75
g1424
sg68
(lp1440
g61
(g62
g63
NtRp1441
(dp1442
g66
(dp1443
g74
I4
ssg75
g1437
sg68
(lp1444
S'56714'
p1445
asbasbasbag61
(g77
g63
NtRp1446
(dp1447
g66
(dp1448
sg75
g852
sg68
(lp1449
g61
(g82
g63
NtRp1450
(dp1451
g66
(dp1452
g86
g87
ssg75
g1446
sg68
(lp1453
S'request_method'
p1454
asbag61
(g82
g63
NtRp1455
(dp1456
g66
(dp1457
g93
g94
ssg75
g1446
sg68
(lp1458
S':'
asbag61
(g82
g63
NtRp1459
(dp1460
g66
(dp1461
sg75
g1446
sg68
(lp1462
g61
(g62
g63
NtRp1463
(dp1464
g66
(dp1465
g74
I4
ssg75
g1459
sg68
(lp1466
S'POST'
p1467
asbasbasbag61
(g77
g63
NtRp1468
(dp1469
g66
(dp1470
sg75
g852
sg68
(lp1471
g61
(g82
g63
NtRp1472
(dp1473
g66
(dp1474
g86
g87
ssg75
g1468
sg68
(lp1475
S'script_name'
p1476
asbag61
(g82
g63
NtRp1477
(dp1478
g66
(dp1479
g93
g94
ssg75
g1468
sg68
(lp1480
S':'
asbag61
(g82
g63
NtRp1481
(dp1482
g66
(dp1483
sg75
g1468
sg68
(lp1484
g61
(g62
g63
NtRp1485
(dp1486
g66
(dp1487
g74
I4
ssg75
g1481
sg68
(lp1488
S''
asbasbasbag61
(g77
g63
NtRp1489
(dp1490
g66
(dp1491
sg75
g852
sg68
(lp1492
g61
(g82
g63
NtRp1493
(dp1494
g66
(dp1495
g86
g87
ssg75
g1489
sg68
(lp1496
S'server_name'
p1497
asbag61
(g82
g63
NtRp1498
(dp1499
g66
(dp1500
g93
g94
ssg75
g1489
sg68
(lp1501
S':'
asbag61
(g82
g63
NtRp1502
(dp1503
g66
(dp1504
sg75
g1489
sg68
(lp1505
g61
(g62
g63
NtRp1506
(dp1507
g66
(dp1508
g74
I4
ssg75
g1502
sg68
(lp1509
S'Toblerone'
p1510
asbasbasbag61
(g77
g63
NtRp1511
(dp1512
g66
(dp1513
sg75
g852
sg68
(lp1514
g61
(g82
g63
NtRp1515
(dp1516
g66
(dp1517
g86
g87
ssg75
g1511
sg68
(lp1518
S'server_port'
p1519
asbag61
(g82
g63
NtRp1520
(dp1521
g66
(dp1522
g93
g94
ssg75
g1511
sg68
(lp1523
S':'
asbag61
(g82
g63
NtRp1524
(dp1525
g66
(dp1526
sg75
g1511
sg68
(lp1527
g61
(g62
g63
NtRp1528
(dp1529
g66
(dp1530
g74
I4
ssg75
g1524
sg68
(lp1531
S'8000'
p1532
asbasbasbag61
(g77
g63
NtRp1533
(dp1534
g66
(dp1535
sg75
g852
sg68
(lp1536
g61
(g82
g63
NtRp1537
(dp1538
g66
(dp1539
g86
g87
ssg75
g1533
sg68
(lp1540
S'server_protocol'
p1541
asbag61
(g82
g63
NtRp1542
(dp1543
g66
(dp1544
g93
g94
ssg75
g1533
sg68
(lp1545
S':'
asbag61
(g82
g63
NtRp1546
(dp1547
g66
(dp1548
sg75
g1533
sg68
(lp1549
g61
(g62
g63
NtRp1550
(dp1551
g66
(dp1552
g74
I4
ssg75
g1546
sg68
(lp1553
S'HTTP/1.1'
p1554
asbasbasbag61
(g77
g63
NtRp1555
(dp1556
g66
(dp1557
sg75
g852
sg68
(lp1558
g61
(g82
g63
NtRp1559
(dp1560
g66
(dp1561
g86
g87
ssg75
g1555
sg68
(lp1562
S'server_software'
p1563
asbag61
(g82
g63
NtRp1564
(dp1565
g66
(dp1566
g93
g94
ssg75
g1555
sg68
(lp1567
S':'
asbag61
(g82
g63
NtRp1568
(dp1569
g66
(dp1570
sg75
g1555
sg68
(lp1571
g61
(g62
g63
NtRp1572
(dp1573
g66
(dp1574
g74
I4
ssg75
g1568
sg68
(lp1575
S'Rocket 1.2.4'
p1576
asbasbasbag61
(g77
g63
NtRp1577
(dp1578
g66
(dp1579
sg75
g852
sg68
(lp1580
g61
(g82
g63
NtRp1581
(dp1582
g66
(dp1583
g86
g87
ssg75
g1577
sg68
(lp1584
S'web2py_crontype'
p1585
asbag61
(g82
g63
NtRp1586
(dp1587
g66
(dp1588
g93
g94
ssg75
g1577
sg68
(lp1589
S':'
asbag61
(g82
g63
NtRp1590
(dp1591
g66
(dp1592
sg75
g1577
sg68
(lp1593
g61
(g62
g63
NtRp1594
(dp1595
g66
(dp1596
g74
I4
ssg75
g1590
sg68
(lp1597
S'hard'
p1598
asbasbasbag61
(g77
g63
NtRp1599
(dp1600
g66
(dp1601
sg75
g852
sg68
(lp1602
g61
(g82
g63
NtRp1603
(dp1604
g66
(dp1605
g86
g87
ssg75
g1599
sg68
(lp1606
S'web2py_path'
p1607
asbag61
(g82
g63
NtRp1608
(dp1609
g66
(dp1610
g93
g94
ssg75
g1599
sg68
(lp1611
S':'
asbag61
(g82
g63
NtRp1612
(dp1613
g66
(dp1614
sg75
g1599
sg68
(lp1615
g61
(g62
g63
NtRp1616
(dp1617
g66
(dp1618
g74
I4
ssg75
g1612
sg68
(lp1619
g899
asbasbasbag61
(g77
g63
NtRp1620
(dp1621
g66
(dp1622
sg75
g852
sg68
(lp1623
g61
(g82
g63
NtRp1624
(dp1625
g66
(dp1626
g86
g87
ssg75
g1620
sg68
(lp1627
S'web2py_version'
p1628
asbag61
(g82
g63
NtRp1629
(dp1630
g66
(dp1631
g93
g94
ssg75
g1620
sg68
(lp1632
S':'
asbag61
(g82
g63
NtRp1633
(dp1634
g66
(dp1635
sg75
g1620
sg68
(lp1636
g61
(g62
g63
NtRp1637
(dp1638
g66
(dp1639
g74
I4
ssg75
g1633
sg68
(lp1640
g61
(g70
g63
NtRp1641
(dp1642
g66
(dp1643
g74
I3
ssg75
Nsg68
(lp1644
g61
(g77
g63
NtRp1645
(dp1646
g66
(dp1647
sg75
g1641
sg68
(lp1648
g61
(g82
g63
NtRp1649
(dp1650
g66
(dp1651
sg75
g1645
sg68
(lp1652
g61
(g62
g63
NtRp1653
(dp1654
g66
(dp1655
g74
I3
ssg75
g1649
sg68
(lp1656
S'1'
asbasbasbag61
(g77
g63
NtRp1657
(dp1658
g66
(dp1659
sg75
g1641
sg68
(lp1660
g61
(g82
g63
NtRp1661
(dp1662
g66
(dp1663
sg75
g1657
sg68
(lp1664
g61
(g62
g63
NtRp1665
(dp1666
g66
(dp1667
g74
I3
ssg75
g1661
sg68
(lp1668
S'99'
p1669
asbasbasbag61
(g77
g63
NtRp1670
(dp1671
g66
(dp1672
sg75
g1641
sg68
(lp1673
g61
(g82
g63
NtRp1674
(dp1675
g66
(dp1676
sg75
g1670
sg68
(lp1677
g61
(g62
g63
NtRp1678
(dp1679
g66
(dp1680
g74
I3
ssg75
g1674
sg68
(lp1681
S'7'
asbasbasbag61
(g77
g63
NtRp1682
(dp1683
g66
(dp1684
sg75
g1641
sg68
(lp1685
g61
(g82
g63
NtRp1686
(dp1687
g66
(dp1688
sg75
g1682
sg68
(lp1689
g61
(g62
g63
NtRp1690
(dp1691
g66
(dp1692
g74
I3
ssg75
g1686
sg68
(lp1693
S'datetime.datetime(2012, 3, 4, 22, 12, 8)'
p1694
asbasbasbag61
(g77
g63
NtRp1695
(dp1696
g66
(dp1697
sg75
g1641
sg68
(lp1698
g61
(g82
g63
NtRp1699
(dp1700
g66
(dp1701
sg75
g1695
sg68
(lp1702
g61
(g62
g63
NtRp1703
(dp1704
g66
(dp1705
g74
I3
ssg75
g1699
sg68
(lp1706
S'stable'
p1707
asbasbasbasbasbasbasbag61
(g77
g63
NtRp1708
(dp1709
g66
(dp1710
sg75
g852
sg68
(lp1711
g61
(g82
g63
NtRp1712
(dp1713
g66
(dp1714
g86
g87
ssg75
g1708
sg68
(lp1715
S'wsgi_errors'
p1716
asbag61
(g82
g63
NtRp1717
(dp1718
g66
(dp1719
g93
g94
ssg75
g1708
sg68
(lp1720
S':'
asbag61
(g82
g63
NtRp1721
(dp1722
g66
(dp1723
sg75
g1708
sg68
(lp1724
g61
(g62
g63
NtRp1725
(dp1726
g66
(dp1727
g74
I4
ssg75
g1721
sg68
(lp1728
S"<open file '<stderr>', mode 'w' at 0x7f81385401e0>"
p1729
asbasbasbag61
(g77
g63
NtRp1730
(dp1731
g66
(dp1732
sg75
g852
sg68
(lp1733
g61
(g82
g63
NtRp1734
(dp1735
g66
(dp1736
g86
g87
ssg75
g1730
sg68
(lp1737
S'wsgi_file_wrapper'
p1738
asbag61
(g82
g63
NtRp1739
(dp1740
g66
(dp1741
g93
g94
ssg75
g1730
sg68
(lp1742
S':'
asbag61
(g82
g63
NtRp1743
(dp1744
g66
(dp1745
sg75
g1730
sg68
(lp1746
g61
(g62
g63
NtRp1747
(dp1748
g66
(dp1749
g74
I4
ssg75
g1743
sg68
(lp1750
S'<class wsgiref.util.FileWrapper at 0x7f8134499bb0>'
p1751
asbasbasbag61
(g77
g63
NtRp1752
(dp1753
g66
(dp1754
sg75
g852
sg68
(lp1755
g61
(g82
g63
NtRp1756
(dp1757
g66
(dp1758
g86
g87
ssg75
g1752
sg68
(lp1759
S'wsgi_input'
p1760
asbag61
(g82
g63
NtRp1761
(dp1762
g66
(dp1763
g93
g94
ssg75
g1752
sg68
(lp1764
S':'
asbag61
(g82
g63
NtRp1765
(dp1766
g66
(dp1767
sg75
g1752
sg68
(lp1768
g61
(g62
g63
NtRp1769
(dp1770
g66
(dp1771
g74
I4
ssg75
g1765
sg68
(lp1772
S'<socket._fileobject object at 0x7f8134275550>'
p1773
asbasbasbag61
(g77
g63
NtRp1774
(dp1775
g66
(dp1776
sg75
g852
sg68
(lp1777
g61
(g82
g63
NtRp1778
(dp1779
g66
(dp1780
g86
g87
ssg75
g1774
sg68
(lp1781
S'wsgi_multiprocess'
p1782
asbag61
(g82
g63
NtRp1783
(dp1784
g66
(dp1785
g93
g94
ssg75
g1774
sg68
(lp1786
S':'
asbag61
(g82
g63
NtRp1787
(dp1788
g66
(dp1789
sg75
g1774
sg68
(lp1790
g61
(g62
g63
NtRp1791
(dp1792
g66
(dp1793
g74
I4
ssg75
g1787
sg68
(lp1794
g104
asbasbasbag61
(g77
g63
NtRp1795
(dp1796
g66
(dp1797
sg75
g852
sg68
(lp1798
g61
(g82
g63
NtRp1799
(dp1800
g66
(dp1801
g86
g87
ssg75
g1795
sg68
(lp1802
S'wsgi_multithread'
p1803
asbag61
(g82
g63
NtRp1804
(dp1805
g66
(dp1806
g93
g94
ssg75
g1795
sg68
(lp1807
S':'
asbag61
(g82
g63
NtRp1808
(dp1809
g66
(dp1810
sg75
g1795
sg68
(lp1811
g61
(g62
g63
NtRp1812
(dp1813
g66
(dp1814
g74
I4
ssg75
g1808
sg68
(lp1815
S'True'
p1816
asbasbasbag61
(g77
g63
NtRp1817
(dp1818
g66
(dp1819
sg75
g852
sg68
(lp1820
g61
(g82
g63
NtRp1821
(dp1822
g66
(dp1823
g86
g87
ssg75
g1817
sg68
(lp1824
S'wsgi_run_once'
p1825
asbag61
(g82
g63
NtRp1826
(dp1827
g66
(dp1828
g93
g94
ssg75
g1817
sg68
(lp1829
S':'
asbag61
(g82
g63
NtRp1830
(dp1831
g66
(dp1832
sg75
g1817
sg68
(lp1833
g61
(g62
g63
NtRp1834
(dp1835
g66
(dp1836
g74
I4
ssg75
g1830
sg68
(lp1837
g104
asbasbasbag61
(g77
g63
NtRp1838
(dp1839
g66
(dp1840
sg75
g852
sg68
(lp1841
g61
(g82
g63
NtRp1842
(dp1843
g66
(dp1844
g86
g87
ssg75
g1838
sg68
(lp1845
S'wsgi_url_scheme'
p1846
asbag61
(g82
g63
NtRp1847
(dp1848
g66
(dp1849
g93
g94
ssg75
g1838
sg68
(lp1850
S':'
asbag61
(g82
g63
NtRp1851
(dp1852
g66
(dp1853
sg75
g1838
sg68
(lp1854
g61
(g62
g63
NtRp1855
(dp1856
g66
(dp1857
g74
I4
ssg75
g1851
sg68
(lp1858
S'http'
p1859
asbasbasbag61
(g77
g63
NtRp1860
(dp1861
g66
(dp1862
sg75
g852
sg68
(lp1863
g61
(g82
g63
NtRp1864
(dp1865
g66
(dp1866
g86
g87
ssg75
g1860
sg68
(lp1867
S'wsgi_version'
p1868
asbag61
(g82
g63
NtRp1869
(dp1870
g66
(dp1871
g93
g94
ssg75
g1860
sg68
(lp1872
S':'
asbag61
(g82
g63
NtRp1873
(dp1874
g66
(dp1875
sg75
g1860
sg68
(lp1876
g61
(g62
g63
NtRp1877
(dp1878
g66
(dp1879
g74
I4
ssg75
g1873
sg68
(lp1880
g61
(g70
g63
NtRp1881
(dp1882
g66
(dp1883
g74
I3
ssg75
Nsg68
(lp1884
g61
(g77
g63
NtRp1885
(dp1886
g66
(dp1887
sg75
g1881
sg68
(lp1888
g61
(g82
g63
NtRp1889
(dp1890
g66
(dp1891
sg75
g1885
sg68
(lp1892
g61
(g62
g63
NtRp1893
(dp1894
g66
(dp1895
g74
I3
ssg75
g1889
sg68
(lp1896
S'1'
asbasbasbag61
(g77
g63
NtRp1897
(dp1898
g66
(dp1899
sg75
g1881
sg68
(lp1900
g61
(g82
g63
NtRp1901
(dp1902
g66
(dp1903
sg75
g1897
sg68
(lp1904
g61
(g62
g63
NtRp1905
(dp1906
g66
(dp1907
g74
I3
ssg75
g1901
sg68
(lp1908
S'0'
asbasbasbasbasbasbasbasbasbasbasbag61
(g77
g63
NtRp1909
(dp1910
g66
(dp1911
sg75
g71
sg68
(lp1912
g61
(g82
g63
NtRp1913
(dp1914
g66
(dp1915
g86
g87
ssg75
g1909
sg68
(lp1916
S'extension'
p1917
asbag61
(g82
g63
NtRp1918
(dp1919
g66
(dp1920
g93
g94
ssg75
g1909
sg68
(lp1921
S':'
asbag61
(g82
g63
NtRp1922
(dp1923
g66
(dp1924
sg75
g1909
sg68
(lp1925
g61
(g62
g63
NtRp1926
(dp1927
g66
(dp1928
g74
I5
ssg75
g1922
sg68
(lp1929
S'html'
p1930
asbasbasbag61
(g77
g63
NtRp1931
(dp1932
g66
(dp1933
sg75
g71
sg68
(lp1934
g61
(g82
g63
NtRp1935
(dp1936
g66
(dp1937
g86
g87
ssg75
g1931
sg68
(lp1938
S'folder'
p1939
asbag61
(g82
g63
NtRp1940
(dp1941
g66
(dp1942
g93
g94
ssg75
g1931
sg68
(lp1943
S':'
asbag61
(g82
g63
NtRp1944
(dp1945
g66
(dp1946
sg75
g1931
sg68
(lp1947
g61
(g62
g63
NtRp1948
(dp1949
g66
(dp1950
g74
I5
ssg75
g1944
sg68
(lp1951
S'/home/rehas/web2py/applications/Aarogya/'
p1952
asbasbasbag61
(g77
g63
NtRp1953
(dp1954
g66
(dp1955
sg75
g71
sg68
(lp1956
g61
(g82
g63
NtRp1957
(dp1958
g66
(dp1959
g86
g87
ssg75
g1953
sg68
(lp1960
S'function'
p1961
asbag61
(g82
g63
NtRp1962
(dp1963
g66
(dp1964
g93
g94
ssg75
g1953
sg68
(lp1965
S':'
asbag61
(g82
g63
NtRp1966
(dp1967
g66
(dp1968
sg75
g1953
sg68
(lp1969
g61
(g62
g63
NtRp1970
(dp1971
g66
(dp1972
g74
I5
ssg75
g1966
sg68
(lp1973
S'insert'
p1974
asbasbasbag61
(g77
g63
NtRp1975
(dp1976
g66
(dp1977
sg75
g71
sg68
(lp1978
g61
(g82
g63
NtRp1979
(dp1980
g66
(dp1981
g86
g87
ssg75
g1975
sg68
(lp1982
S'get_vars'
p1983
asbag61
(g82
g63
NtRp1984
(dp1985
g66
(dp1986
g93
g94
ssg75
g1975
sg68
(lp1987
S':'
asbag61
(g82
g63
NtRp1988
(dp1989
g66
(dp1990
sg75
g1975
sg68
(lp1991
g61
(g62
g63
NtRp1992
(dp1993
g66
(dp1994
g74
I5
ssg75
g1988
sg68
(lp1995
g61
(g70
g63
NtRp1996
(dp1997
g66
(dp1998
g74
I4
ssg75
Nsg68
(lp1999
sbasbasbasbag61
(g77
g63
NtRp2000
(dp2001
g66
(dp2002
sg75
g71
sg68
(lp2003
g61
(g82
g63
NtRp2004
(dp2005
g66
(dp2006
g86
g87
ssg75
g2000
sg68
(lp2007
S'global_settings'
p2008
asbag61
(g82
g63
NtRp2009
(dp2010
g66
(dp2011
g93
g94
ssg75
g2000
sg68
(lp2012
S':'
asbag61
(g82
g63
NtRp2013
(dp2014
g66
(dp2015
sg75
g2000
sg68
(lp2016
g61
(g62
g63
NtRp2017
(dp2018
g66
(dp2019
g74
I5
ssg75
g2013
sg68
(lp2020
g61
(g70
g63
NtRp2021
(dp2022
g66
(dp2023
g74
I4
ssg75
Nsg68
(lp2024
g61
(g77
g63
NtRp2025
(dp2026
g66
(dp2027
sg75
g2021
sg68
(lp2028
g61
(g82
g63
NtRp2029
(dp2030
g66
(dp2031
g86
g87
ssg75
g2025
sg68
(lp2032
g864
asbag61
(g82
g63
NtRp2033
(dp2034
g66
(dp2035
g93
g94
ssg75
g2025
sg68
(lp2036
S':'
asbag61
(g82
g63
NtRp2037
(dp2038
g66
(dp2039
sg75
g2025
sg68
(lp2040
g61
(g62
g63
NtRp2041
(dp2042
g66
(dp2043
g74
I4
ssg75
g2037
sg68
(lp2044
S"set(['/home/rehas/web2py/applications/Aarogya/', '/home/rehas/web2py/applications/admin/', '/home/rehas/web2py/applications/welcome/'])"
p2045
asbasbasbag61
(g77
g63
NtRp2046
(dp2047
g66
(dp2048
sg75
g2021
sg68
(lp2049
g61
(g82
g63
NtRp2050
(dp2051
g66
(dp2052
g86
g87
ssg75
g2046
sg68
(lp2053
g886
asbag61
(g82
g63
NtRp2054
(dp2055
g66
(dp2056
g93
g94
ssg75
g2046
sg68
(lp2057
S':'
asbag61
(g82
g63
NtRp2058
(dp2059
g66
(dp2060
sg75
g2046
sg68
(lp2061
g61
(g62
g63
NtRp2062
(dp2063
g66
(dp2064
g74
I4
ssg75
g2058
sg68
(lp2065
g899
asbasbasbag61
(g77
g63
NtRp2066
(dp2067
g66
(dp2068
sg75
g2021
sg68
(lp2069
g61
(g82
g63
NtRp2070
(dp2071
g66
(dp2072
g86
g87
ssg75
g2066
sg68
(lp2073
g908
asbag61
(g82
g63
NtRp2074
(dp2075
g66
(dp2076
g93
g94
ssg75
g2066
sg68
(lp2077
S':'
asbag61
(g82
g63
NtRp2078
(dp2079
g66
(dp2080
sg75
g2066
sg68
(lp2081
g61
(g62
g63
NtRp2082
(dp2083
g66
(dp2084
g74
I4
ssg75
g2078
sg68
(lp2085
g61
(g70
g63
NtRp2086
(dp2087
g66
(dp2088
g74
I3
ssg75
Nsg68
(lp2089
sbasbasbasbag61
(g77
g63
NtRp2090
(dp2091
g66
(dp2092
sg75
g2021
sg68
(lp2093
g61
(g82
g63
NtRp2094
(dp2095
g66
(dp2096
g86
g87
ssg75
g2090
sg68
(lp2097
g933
asbag61
(g82
g63
NtRp2098
(dp2099
g66
(dp2100
g93
g94
ssg75
g2090
sg68
(lp2101
S':'
asbag61
(g82
g63
NtRp2102
(dp2103
g66
(dp2104
sg75
g2090
sg68
(lp2105
g61
(g62
g63
NtRp2106
(dp2107
g66
(dp2108
g74
I4
ssg75
g2102
sg68
(lp2109
S"<Values at 0x7f81342cf440: {'verbose': False, 'ip': '127.0.0.1', 'shutdown_timeout': 5, 'taskbar': False, 'nocron': False, 'pid_filename': 'httpserver.pid', 'maxthreads': None, 'softcron': False, 'server_name': 'Toblerone', 'bpython': False, 'nogui': False, 'port': 8000, 'extcron': False, 'debuglevel': 30, 'test': None, 'folder': '/home/rehas/web2py', 'config': '', 'import_models': False, 'winservice': '', 'shell': None, 'run': '', 'log_filename': 'httpserver.log', 'args': [''], 'socket_timeout': 5, 'ssl_ca_certificate': None, 'scheduler': None, 'profiler_filename': None, 'ssl_private_key': '', 'password': '<ask>', 'request_queue_size': 5, 'ssl_certificate': '', 'cronjob': False, 'numthreads': None, 'quiet': False, 'interfaces': None, 'minthreads': None, 'timeout': 10, 'plain': False, 'nobanner': False}>"
p2110
asbasbasbag61
(g77
g63
NtRp2111
(dp2112
g66
(dp2113
sg75
g2021
sg68
(lp2114
g61
(g82
g63
NtRp2115
(dp2116
g66
(dp2117
g86
g87
ssg75
g2111
sg68
(lp2118
g999
asbag61
(g82
g63
NtRp2119
(dp2120
g66
(dp2121
g93
g94
ssg75
g2111
sg68
(lp2122
S':'
asbag61
(g82
g63
NtRp2123
(dp2124
g66
(dp2125
sg75
g2111
sg68
(lp2126
g61
(g62
g63
NtRp2127
(dp2128
g66
(dp2129
g74
I4
ssg75
g2123
sg68
(lp2130
S'set([])'
p2131
asbasbasbag61
(g77
g63
NtRp2132
(dp2133
g66
(dp2134
sg75
g2021
sg68
(lp2135
g61
(g82
g63
NtRp2136
(dp2137
g66
(dp2138
g86
g87
ssg75
g2132
sg68
(lp2139
g1021
asbag61
(g82
g63
NtRp2140
(dp2141
g66
(dp2142
g93
g94
ssg75
g2132
sg68
(lp2143
S':'
asbag61
(g82
g63
NtRp2144
(dp2145
g66
(dp2146
sg75
g2132
sg68
(lp2147
g61
(g62
g63
NtRp2148
(dp2149
g66
(dp2150
g74
I4
ssg75
g2144
sg68
(lp2151
g104
asbasbasbag61
(g77
g63
NtRp2152
(dp2153
g66
(dp2154
sg75
g2021
sg68
(lp2155
g61
(g82
g63
NtRp2156
(dp2157
g66
(dp2158
g86
g87
ssg75
g2152
sg68
(lp2159
g1042
asbag61
(g82
g63
NtRp2160
(dp2161
g66
(dp2162
g93
g94
ssg75
g2152
sg68
(lp2163
S':'
asbag61
(g82
g63
NtRp2164
(dp2165
g66
(dp2166
sg75
g2152
sg68
(lp2167
g61
(g62
g63
NtRp2168
(dp2169
g66
(dp2170
g74
I4
ssg75
g2164
sg68
(lp2171
g1055
asbasbasbag61
(g77
g63
NtRp2172
(dp2173
g66
(dp2174
sg75
g2021
sg68
(lp2175
g61
(g82
g63
NtRp2176
(dp2177
g66
(dp2178
g86
g87
ssg75
g2172
sg68
(lp2179
g1326
asbag61
(g82
g63
NtRp2180
(dp2181
g66
(dp2182
g93
g94
ssg75
g2172
sg68
(lp2183
S':'
asbag61
(g82
g63
NtRp2184
(dp2185
g66
(dp2186
sg75
g2172
sg68
(lp2187
g61
(g62
g63
NtRp2188
(dp2189
g66
(dp2190
g74
I4
ssg75
g2184
sg68
(lp2191
g104
asbasbasbag61
(g77
g63
NtRp2192
(dp2193
g66
(dp2194
sg75
g2021
sg68
(lp2195
g61
(g82
g63
NtRp2196
(dp2197
g66
(dp2198
g86
g87
ssg75
g2192
sg68
(lp2199
g1347
asbag61
(g82
g63
NtRp2200
(dp2201
g66
(dp2202
g93
g94
ssg75
g2192
sg68
(lp2203
S':'
asbag61
(g82
g63
NtRp2204
(dp2205
g66
(dp2206
sg75
g2192
sg68
(lp2207
g61
(g62
g63
NtRp2208
(dp2209
g66
(dp2210
g74
I4
ssg75
g2204
sg68
(lp2211
g104
asbasbasbag61
(g77
g63
NtRp2212
(dp2213
g66
(dp2214
sg75
g2021
sg68
(lp2215
g61
(g82
g63
NtRp2216
(dp2217
g66
(dp2218
g86
g87
ssg75
g2212
sg68
(lp2219
g1585
asbag61
(g82
g63
NtRp2220
(dp2221
g66
(dp2222
g93
g94
ssg75
g2212
sg68
(lp2223
S':'
asbag61
(g82
g63
NtRp2224
(dp2225
g66
(dp2226
sg75
g2212
sg68
(lp2227
g61
(g62
g63
NtRp2228
(dp2229
g66
(dp2230
g74
I4
ssg75
g2224
sg68
(lp2231
g1598
asbasbasbag61
(g77
g63
NtRp2232
(dp2233
g66
(dp2234
sg75
g2021
sg68
(lp2235
g61
(g82
g63
NtRp2236
(dp2237
g66
(dp2238
g86
g87
ssg75
g2232
sg68
(lp2239
g1628
asbag61
(g82
g63
NtRp2240
(dp2241
g66
(dp2242
g93
g94
ssg75
g2232
sg68
(lp2243
S':'
asbag61
(g82
g63
NtRp2244
(dp2245
g66
(dp2246
sg75
g2232
sg68
(lp2247
g61
(g62
g63
NtRp2248
(dp2249
g66
(dp2250
g74
I4
ssg75
g2244
sg68
(lp2251
g61
(g70
g63
NtRp2252
(dp2253
g66
(dp2254
g74
I3
ssg75
Nsg68
(lp2255
g61
(g77
g63
NtRp2256
(dp2257
g66
(dp2258
sg75
g2252
sg68
(lp2259
g61
(g82
g63
NtRp2260
(dp2261
g66
(dp2262
sg75
g2256
sg68
(lp2263
g61
(g62
g63
NtRp2264
(dp2265
g66
(dp2266
g74
I3
ssg75
g2260
sg68
(lp2267
S'1'
asbasbasbag61
(g77
g63
NtRp2268
(dp2269
g66
(dp2270
sg75
g2252
sg68
(lp2271
g61
(g82
g63
NtRp2272
(dp2273
g66
(dp2274
sg75
g2268
sg68
(lp2275
g61
(g62
g63
NtRp2276
(dp2277
g66
(dp2278
g74
I3
ssg75
g2272
sg68
(lp2279
S'99'
p2280
asbasbasbag61
(g77
g63
NtRp2281
(dp2282
g66
(dp2283
sg75
g2252
sg68
(lp2284
g61
(g82
g63
NtRp2285
(dp2286
g66
(dp2287
sg75
g2281
sg68
(lp2288
g61
(g62
g63
NtRp2289
(dp2290
g66
(dp2291
g74
I3
ssg75
g2285
sg68
(lp2292
S'7'
asbasbasbag61
(g77
g63
NtRp2293
(dp2294
g66
(dp2295
sg75
g2252
sg68
(lp2296
g61
(g82
g63
NtRp2297
(dp2298
g66
(dp2299
sg75
g2293
sg68
(lp2300
g61
(g62
g63
NtRp2301
(dp2302
g66
(dp2303
g74
I3
ssg75
g2297
sg68
(lp2304
S'datetime.datetime(2012, 3, 4, 22, 12, 8)'
p2305
asbasbasbag61
(g77
g63
NtRp2306
(dp2307
g66
(dp2308
sg75
g2252
sg68
(lp2309
g61
(g82
g63
NtRp2310
(dp2311
g66
(dp2312
sg75
g2306
sg68
(lp2313
g61
(g62
g63
NtRp2314
(dp2315
g66
(dp2316
g74
I3
ssg75
g2310
sg68
(lp2317
g1707
asbasbasbasbasbasbasbasbasbasbasbag61
(g77
g63
NtRp2318
(dp2319
g66
(dp2320
sg75
g71
sg68
(lp2321
g61
(g82
g63
NtRp2322
(dp2323
g66
(dp2324
g86
g87
ssg75
g2318
sg68
(lp2325
S'is_https'
p2326
asbag61
(g82
g63
NtRp2327
(dp2328
g66
(dp2329
g93
g94
ssg75
g2318
sg68
(lp2330
S':'
asbag61
(g82
g63
NtRp2331
(dp2332
g66
(dp2333
sg75
g2318
sg68
(lp2334
g61
(g62
g63
NtRp2335
(dp2336
g66
(dp2337
g74
I5
ssg75
g2331
sg68
(lp2338
g104
asbasbasbag61
(g77
g63
NtRp2339
(dp2340
g66
(dp2341
sg75
g71
sg68
(lp2342
g61
(g82
g63
NtRp2343
(dp2344
g66
(dp2345
g86
g87
ssg75
g2339
sg68
(lp2346
S'is_local'
p2347
asbag61
(g82
g63
NtRp2348
(dp2349
g66
(dp2350
g93
g94
ssg75
g2339
sg68
(lp2351
S':'
asbag61
(g82
g63
NtRp2352
(dp2353
g66
(dp2354
sg75
g2339
sg68
(lp2355
g61
(g62
g63
NtRp2356
(dp2357
g66
(dp2358
g74
I5
ssg75
g2352
sg68
(lp2359
g1816
asbasbasbag61
(g77
g63
NtRp2360
(dp2361
g66
(dp2362
sg75
g71
sg68
(lp2363
g61
(g82
g63
NtRp2364
(dp2365
g66
(dp2366
g86
g87
ssg75
g2360
sg68
(lp2367
S'is_restful'
p2368
asbag61
(g82
g63
NtRp2369
(dp2370
g66
(dp2371
g93
g94
ssg75
g2360
sg68
(lp2372
S':'
asbag61
(g82
g63
NtRp2373
(dp2374
g66
(dp2375
sg75
g2360
sg68
(lp2376
g61
(g62
g63
NtRp2377
(dp2378
g66
(dp2379
g74
I5
ssg75
g2373
sg68
(lp2380
g104
asbasbasbag61
(g77
g63
NtRp2381
(dp2382
g66
(dp2383
sg75
g71
sg68
(lp2384
g61
(g82
g63
NtRp2385
(dp2386
g66
(dp2387
g86
g87
ssg75
g2381
sg68
(lp2388
S'now'
p2389
asbag61
(g82
g63
NtRp2390
(dp2391
g66
(dp2392
g93
g94
ssg75
g2381
sg68
(lp2393
S':'
asbag61
(g82
g63
NtRp2394
(dp2395
g66
(dp2396
sg75
g2381
sg68
(lp2397
g61
(g62
g63
NtRp2398
(dp2399
g66
(dp2400
g74
I5
ssg75
g2394
sg68
(lp2401
S'datetime.datetime(2015, 4, 2, 20, 10, 58, 287723)'
p2402
asbasbasbag61
(g77
g63
NtRp2403
(dp2404
g66
(dp2405
sg75
g71
sg68
(lp2406
g61
(g82
g63
NtRp2407
(dp2408
g66
(dp2409
g86
g87
ssg75
g2403
sg68
(lp2410
S'post_vars'
p2411
asbag61
(g82
g63
NtRp2412
(dp2413
g66
(dp2414
g93
g94
ssg75
g2403
sg68
(lp2415
S':'
asbag61
(g82
g63
NtRp2416
(dp2417
g66
(dp2418
sg75
g2403
sg68
(lp2419
g61
(g62
g63
NtRp2420
(dp2421
g66
(dp2422
g74
I5
ssg75
g2416
sg68
(lp2423
g61
(g70
g63
NtRp2424
(dp2425
g66
(dp2426
g74
I4
ssg75
Nsg68
(lp2427
g61
(g77
g63
NtRp2428
(dp2429
g66
(dp2430
sg75
g2424
sg68
(lp2431
g61
(g82
g63
NtRp2432
(dp2433
g66
(dp2434
g86
g87
ssg75
g2428
sg68
(lp2435
S'UPID'
p2436
asbag61
(g82
g63
NtRp2437
(dp2438
g66
(dp2439
g93
g94
ssg75
g2428
sg68
(lp2440
S':'
asbag61
(g82
g63
NtRp2441
(dp2442
g66
(dp2443
sg75
g2428
sg68
(lp2444
g61
(g62
g63
NtRp2445
(dp2446
g66
(dp2447
g74
I4
ssg75
g2441
sg68
(lp2448
S'4345'
p2449
asbasbasbag61
(g77
g63
NtRp2450
(dp2451
g66
(dp2452
sg75
g2424
sg68
(lp2453
g61
(g82
g63
NtRp2454
(dp2455
g66
(dp2456
g86
g87
ssg75
g2450
sg68
(lp2457
S'address'
p2458
asbag61
(g82
g63
NtRp2459
(dp2460
g66
(dp2461
g93
g94
ssg75
g2450
sg68
(lp2462
S':'
asbag61
(g82
g63
NtRp2463
(dp2464
g66
(dp2465
sg75
g2450
sg68
(lp2466
g61
(g62
g63
NtRp2467
(dp2468
g66
(dp2469
g74
I4
ssg75
g2463
sg68
(lp2470
S'gf'
p2471
asbasbasbag61
(g77
g63
NtRp2472
(dp2473
g66
(dp2474
sg75
g2424
sg68
(lp2475
g61
(g82
g63
NtRp2476
(dp2477
g66
(dp2478
g86
g87
ssg75
g2472
sg68
(lp2479
S'allergies'
p2480
asbag61
(g82
g63
NtRp2481
(dp2482
g66
(dp2483
g93
g94
ssg75
g2472
sg68
(lp2484
S':'
asbag61
(g82
g63
NtRp2485
(dp2486
g66
(dp2487
sg75
g2472
sg68
(lp2488
g61
(g62
g63
NtRp2489
(dp2490
g66
(dp2491
g74
I4
ssg75
g2485
sg68
(lp2492
S'ggh'
p2493
asbasbasbag61
(g77
g63
NtRp2494
(dp2495
g66
(dp2496
sg75
g2424
sg68
(lp2497
g61
(g82
g63
NtRp2498
(dp2499
g66
(dp2500
g86
g87
ssg75
g2494
sg68
(lp2501
S'bloodgroup'
p2502
asbag61
(g82
g63
NtRp2503
(dp2504
g66
(dp2505
g93
g94
ssg75
g2494
sg68
(lp2506
S':'
asbag61
(g82
g63
NtRp2507
(dp2508
g66
(dp2509
sg75
g2494
sg68
(lp2510
g61
(g62
g63
NtRp2511
(dp2512
g66
(dp2513
g74
I4
ssg75
g2507
sg68
(lp2514
S'O+'
p2515
asbasbasbag61
(g77
g63
NtRp2516
(dp2517
g66
(dp2518
sg75
g2424
sg68
(lp2519
g61
(g82
g63
NtRp2520
(dp2521
g66
(dp2522
g86
g87
ssg75
g2516
sg68
(lp2523
S'dob'
p2524
asbag61
(g82
g63
NtRp2525
(dp2526
g66
(dp2527
g93
g94
ssg75
g2516
sg68
(lp2528
S':'
asbag61
(g82
g63
NtRp2529
(dp2530
g66
(dp2531
sg75
g2516
sg68
(lp2532
g61
(g62
g63
NtRp2533
(dp2534
g66
(dp2535
g74
I4
ssg75
g2529
sg68
(lp2536
S'2015-04-14'
p2537
asbasbasbag61
(g77
g63
NtRp2538
(dp2539
g66
(dp2540
sg75
g2424
sg68
(lp2541
g61
(g82
g63
NtRp2542
(dp2543
g66
(dp2544
g86
g87
ssg75
g2538
sg68
(lp2545
S'email'
p2546
asbag61
(g82
g63
NtRp2547
(dp2548
g66
(dp2549
g93
g94
ssg75
g2538
sg68
(lp2550
S':'
asbag61
(g82
g63
NtRp2551
(dp2552
g66
(dp2553
sg75
g2538
sg68
(lp2554
g61
(g62
g63
NtRp2555
(dp2556
g66
(dp2557
g74
I4
ssg75
g2551
sg68
(lp2558
S'a@b.com'
p2559
asbasbasbag61
(g77
g63
NtRp2560
(dp2561
g66
(dp2562
sg75
g2424
sg68
(lp2563
g61
(g82
g63
NtRp2564
(dp2565
g66
(dp2566
g86
g87
ssg75
g2560
sg68
(lp2567
S'first_name'
p2568
asbag61
(g82
g63
NtRp2569
(dp2570
g66
(dp2571
g93
g94
ssg75
g2560
sg68
(lp2572
S':'
asbag61
(g82
g63
NtRp2573
(dp2574
g66
(dp2575
sg75
g2560
sg68
(lp2576
g61
(g62
g63
NtRp2577
(dp2578
g66
(dp2579
g74
I4
ssg75
g2573
sg68
(lp2580
S'a'
asbasbasbag61
(g77
g63
NtRp2581
(dp2582
g66
(dp2583
sg75
g2424
sg68
(lp2584
g61
(g82
g63
NtRp2585
(dp2586
g66
(dp2587
g86
g87
ssg75
g2581
sg68
(lp2588
S'last_name'
p2589
asbag61
(g82
g63
NtRp2590
(dp2591
g66
(dp2592
g93
g94
ssg75
g2581
sg68
(lp2593
S':'
asbag61
(g82
g63
NtRp2594
(dp2595
g66
(dp2596
sg75
g2581
sg68
(lp2597
g61
(g62
g63
NtRp2598
(dp2599
g66
(dp2600
g74
I4
ssg75
g2594
sg68
(lp2601
S'a'
asbasbasbag61
(g77
g63
NtRp2602
(dp2603
g66
(dp2604
sg75
g2424
sg68
(lp2605
g61
(g82
g63
NtRp2606
(dp2607
g66
(dp2608
g86
g87
ssg75
g2602
sg68
(lp2609
S'password'
p2610
asbag61
(g82
g63
NtRp2611
(dp2612
g66
(dp2613
g93
g94
ssg75
g2602
sg68
(lp2614
S':'
asbag61
(g82
g63
NtRp2615
(dp2616
g66
(dp2617
sg75
g2602
sg68
(lp2618
g61
(g62
g63
NtRp2619
(dp2620
g66
(dp2621
g74
I4
ssg75
g2615
sg68
(lp2622
S'aggh'
p2623
asbasbasbag61
(g77
g63
NtRp2624
(dp2625
g66
(dp2626
sg75
g2424
sg68
(lp2627
g61
(g82
g63
NtRp2628
(dp2629
g66
(dp2630
g86
g87
ssg75
g2624
sg68
(lp2631
S'phone'
p2632
asbag61
(g82
g63
NtRp2633
(dp2634
g66
(dp2635
g93
g94
ssg75
g2624
sg68
(lp2636
S':'
asbag61
(g82
g63
NtRp2637
(dp2638
g66
(dp2639
sg75
g2624
sg68
(lp2640
g61
(g62
g63
NtRp2641
(dp2642
g66
(dp2643
g74
I4
ssg75
g2637
sg68
(lp2644
S'87'
p2645
asbasbasbag61
(g77
g63
NtRp2646
(dp2647
g66
(dp2648
sg75
g2424
sg68
(lp2649
g61
(g82
g63
NtRp2650
(dp2651
g66
(dp2652
g86
g87
ssg75
g2646
sg68
(lp2653
S'sex'
p2654
asbag61
(g82
g63
NtRp2655
(dp2656
g66
(dp2657
g93
g94
ssg75
g2646
sg68
(lp2658
S':'
asbag61
(g82
g63
NtRp2659
(dp2660
g66
(dp2661
sg75
g2646
sg68
(lp2662
g61
(g62
g63
NtRp2663
(dp2664
g66
(dp2665
g74
I4
ssg75
g2659
sg68
(lp2666
S'F'
asbasbasbasbasbasbasbag61
(g77
g63
NtRp2667
(dp2668
g66
(dp2669
sg75
g71
sg68
(lp2670
g61
(g82
g63
NtRp2671
(dp2672
g66
(dp2673
g86
g87
ssg75
g2667
sg68
(lp2674
S'raw_args'
p2675
asbag61
(g82
g63
NtRp2676
(dp2677
g66
(dp2678
g93
g94
ssg75
g2667
sg68
(lp2679
S':'
asbag61
(g82
g63
NtRp2680
(dp2681
g66
(dp2682
sg75
g2667
sg68
(lp2683
g61
(g62
g63
NtRp2684
(dp2685
g66
(dp2686
g74
I5
ssg75
g2680
sg68
(lp2687
S'db/patient'
p2688
asbasbasbag61
(g77
g63
NtRp2689
(dp2690
g66
(dp2691
sg75
g71
sg68
(lp2692
g61
(g82
g63
NtRp2693
(dp2694
g66
(dp2695
g86
g87
ssg75
g2689
sg68
(lp2696
S'url'
p2697
asbag61
(g82
g63
NtRp2698
(dp2699
g66
(dp2700
g93
g94
ssg75
g2689
sg68
(lp2701
S':'
asbag61
(g82
g63
NtRp2702
(dp2703
g66
(dp2704
sg75
g2689
sg68
(lp2705
g61
(g62
g63
NtRp2706
(dp2707
g66
(dp2708
g74
I5
ssg75
g2702
sg68
(lp2709
S'/Aarogya/appadmin/insert/db/patient'
p2710
asbasbasbag61
(g77
g63
NtRp2711
(dp2712
g66
(dp2713
sg75
g71
sg68
(lp2714
g61
(g82
g63
NtRp2715
(dp2716
g66
(dp2717
g86
g87
ssg75
g2711
sg68
(lp2718
S'utcnow'
p2719
asbag61
(g82
g63
NtRp2720
(dp2721
g66
(dp2722
g93
g94
ssg75
g2711
sg68
(lp2723
S':'
asbag61
(g82
g63
NtRp2724
(dp2725
g66
(dp2726
sg75
g2711
sg68
(lp2727
g61
(g62
g63
NtRp2728
(dp2729
g66
(dp2730
g74
I5
ssg75
g2724
sg68
(lp2731
S'datetime.datetime(2015, 4, 2, 14, 40, 58, 287746)'
p2732
asbasbasbag61
(g77
g63
NtRp2733
(dp2734
g66
(dp2735
sg75
g71
sg68
(lp2736
g61
(g82
g63
NtRp2737
(dp2738
g66
(dp2739
g86
g87
ssg75
g2733
sg68
(lp2740
S'uuid'
p2741
asbag61
(g82
g63
NtRp2742
(dp2743
g66
(dp2744
g93
g94
ssg75
g2733
sg68
(lp2745
S':'
asbag61
(g82
g63
NtRp2746
(dp2747
g66
(dp2748
sg75
g2733
sg68
(lp2749
g61
(g62
g63
NtRp2750
(dp2751
g66
(dp2752
g74
I5
ssg75
g2746
sg68
(lp2753
S'Aarogya/127.0.0.1.2015-04-02.20-10-58.e0ba3890-5832-4bd6-a820-c26262b6bade'
p2754
asbasbasbag61
(g77
g63
NtRp2755
(dp2756
g66
(dp2757
sg75
g71
sg68
(lp2758
g61
(g82
g63
NtRp2759
(dp2760
g66
(dp2761
g86
g87
ssg75
g2755
sg68
(lp2762
S'vars'
p2763
asbag61
(g82
g63
NtRp2764
(dp2765
g66
(dp2766
g93
g94
ssg75
g2755
sg68
(lp2767
S':'
asbag61
(g82
g63
NtRp2768
(dp2769
g66
(dp2770
sg75
g2755
sg68
(lp2771
g61
(g62
g63
NtRp2772
(dp2773
g66
(dp2774
g74
I5
ssg75
g2768
sg68
(lp2775
g61
(g70
g63
NtRp2776
(dp2777
g66
(dp2778
g74
I4
ssg75
Nsg68
(lp2779
g61
(g77
g63
NtRp2780
(dp2781
g66
(dp2782
sg75
g2776
sg68
(lp2783
g61
(g82
g63
NtRp2784
(dp2785
g66
(dp2786
g86
g87
ssg75
g2780
sg68
(lp2787
g2436
asbag61
(g82
g63
NtRp2788
(dp2789
g66
(dp2790
g93
g94
ssg75
g2780
sg68
(lp2791
S':'
asbag61
(g82
g63
NtRp2792
(dp2793
g66
(dp2794
sg75
g2780
sg68
(lp2795
g61
(g62
g63
NtRp2796
(dp2797
g66
(dp2798
g74
I4
ssg75
g2792
sg68
(lp2799
g2449
asbasbasbag61
(g77
g63
NtRp2800
(dp2801
g66
(dp2802
sg75
g2776
sg68
(lp2803
g61
(g82
g63
NtRp2804
(dp2805
g66
(dp2806
g86
g87
ssg75
g2800
sg68
(lp2807
g2458
asbag61
(g82
g63
NtRp2808
(dp2809
g66
(dp2810
g93
g94
ssg75
g2800
sg68
(lp2811
S':'
asbag61
(g82
g63
NtRp2812
(dp2813
g66
(dp2814
sg75
g2800
sg68
(lp2815
g61
(g62
g63
NtRp2816
(dp2817
g66
(dp2818
g74
I4
ssg75
g2812
sg68
(lp2819
g2471
asbasbasbag61
(g77
g63
NtRp2820
(dp2821
g66
(dp2822
sg75
g2776
sg68
(lp2823
g61
(g82
g63
NtRp2824
(dp2825
g66
(dp2826
g86
g87
ssg75
g2820
sg68
(lp2827
g2480
asbag61
(g82
g63
NtRp2828
(dp2829
g66
(dp2830
g93
g94
ssg75
g2820
sg68
(lp2831
S':'
asbag61
(g82
g63
NtRp2832
(dp2833
g66
(dp2834
sg75
g2820
sg68
(lp2835
g61
(g62
g63
NtRp2836
(dp2837
g66
(dp2838
g74
I4
ssg75
g2832
sg68
(lp2839
g2493
asbasbasbag61
(g77
g63
NtRp2840
(dp2841
g66
(dp2842
sg75
g2776
sg68
(lp2843
g61
(g82
g63
NtRp2844
(dp2845
g66
(dp2846
g86
g87
ssg75
g2840
sg68
(lp2847
g2502
asbag61
(g82
g63
NtRp2848
(dp2849
g66
(dp2850
g93
g94
ssg75
g2840
sg68
(lp2851
S':'
asbag61
(g82
g63
NtRp2852
(dp2853
g66
(dp2854
sg75
g2840
sg68
(lp2855
g61
(g62
g63
NtRp2856
(dp2857
g66
(dp2858
g74
I4
ssg75
g2852
sg68
(lp2859
g2515
asbasbasbag61
(g77
g63
NtRp2860
(dp2861
g66
(dp2862
sg75
g2776
sg68
(lp2863
g61
(g82
g63
NtRp2864
(dp2865
g66
(dp2866
g86
g87
ssg75
g2860
sg68
(lp2867
g2524
asbag61
(g82
g63
NtRp2868
(dp2869
g66
(dp2870
g93
g94
ssg75
g2860
sg68
(lp2871
S':'
asbag61
(g82
g63
NtRp2872
(dp2873
g66
(dp2874
sg75
g2860
sg68
(lp2875
g61
(g62
g63
NtRp2876
(dp2877
g66
(dp2878
g74
I4
ssg75
g2872
sg68
(lp2879
g2537
asbasbasbag61
(g77
g63
NtRp2880
(dp2881
g66
(dp2882
sg75
g2776
sg68
(lp2883
g61
(g82
g63
NtRp2884
(dp2885
g66
(dp2886
g86
g87
ssg75
g2880
sg68
(lp2887
g2546
asbag61
(g82
g63
NtRp2888
(dp2889
g66
(dp2890
g93
g94
ssg75
g2880
sg68
(lp2891
S':'
asbag61
(g82
g63
NtRp2892
(dp2893
g66
(dp2894
sg75
g2880
sg68
(lp2895
g61
(g62
g63
NtRp2896
(dp2897
g66
(dp2898
g74
I4
ssg75
g2892
sg68
(lp2899
g2559
asbasbasbag61
(g77
g63
NtRp2900
(dp2901
g66
(dp2902
sg75
g2776
sg68
(lp2903
g61
(g82
g63
NtRp2904
(dp2905
g66
(dp2906
g86
g87
ssg75
g2900
sg68
(lp2907
g2568
asbag61
(g82
g63
NtRp2908
(dp2909
g66
(dp2910
g93
g94
ssg75
g2900
sg68
(lp2911
S':'
asbag61
(g82
g63
NtRp2912
(dp2913
g66
(dp2914
sg75
g2900
sg68
(lp2915
g61
(g62
g63
NtRp2916
(dp2917
g66
(dp2918
g74
I4
ssg75
g2912
sg68
(lp2919
S'a'
asbasbasbag61
(g77
g63
NtRp2920
(dp2921
g66
(dp2922
sg75
g2776
sg68
(lp2923
g61
(g82
g63
NtRp2924
(dp2925
g66
(dp2926
g86
g87
ssg75
g2920
sg68
(lp2927
g2589
asbag61
(g82
g63
NtRp2928
(dp2929
g66
(dp2930
g93
g94
ssg75
g2920
sg68
(lp2931
S':'
asbag61
(g82
g63
NtRp2932
(dp2933
g66
(dp2934
sg75
g2920
sg68
(lp2935
g61
(g62
g63
NtRp2936
(dp2937
g66
(dp2938
g74
I4
ssg75
g2932
sg68
(lp2939
S'a'
asbasbasbag61
(g77
g63
NtRp2940
(dp2941
g66
(dp2942
sg75
g2776
sg68
(lp2943
g61
(g82
g63
NtRp2944
(dp2945
g66
(dp2946
g86
g87
ssg75
g2940
sg68
(lp2947
g2610
asbag61
(g82
g63
NtRp2948
(dp2949
g66
(dp2950
g93
g94
ssg75
g2940
sg68
(lp2951
S':'
asbag61
(g82
g63
NtRp2952
(dp2953
g66
(dp2954
sg75
g2940
sg68
(lp2955
g61
(g62
g63
NtRp2956
(dp2957
g66
(dp2958
g74
I4
ssg75
g2952
sg68
(lp2959
g2623
asbasbasbag61
(g77
g63
NtRp2960
(dp2961
g66
(dp2962
sg75
g2776
sg68
(lp2963
g61
(g82
g63
NtRp2964
(dp2965
g66
(dp2966
g86
g87
ssg75
g2960
sg68
(lp2967
g2632
asbag61
(g82
g63
NtRp2968
(dp2969
g66
(dp2970
g93
g94
ssg75
g2960
sg68
(lp2971
S':'
asbag61
(g82
g63
NtRp2972
(dp2973
g66
(dp2974
sg75
g2960
sg68
(lp2975
g61
(g62
g63
NtRp2976
(dp2977
g66
(dp2978
g74
I4
ssg75
g2972
sg68
(lp2979
g2645
asbasbasbag61
(g77
g63
NtRp2980
(dp2981
g66
(dp2982
sg75
g2776
sg68
(lp2983
g61
(g82
g63
NtRp2984
(dp2985
g66
(dp2986
g86
g87
ssg75
g2980
sg68
(lp2987
g2654
asbag61
(g82
g63
NtRp2988
(dp2989
g66
(dp2990
g93
g94
ssg75
g2980
sg68
(lp2991
S':'
asbag61
(g82
g63
NtRp2992
(dp2993
g66
(dp2994
sg75
g2980
sg68
(lp2995
g61
(g62
g63
NtRp2996
(dp2997
g66
(dp2998
g74
I4
ssg75
g2992
sg68
(lp2999
S'F'
asbasbasbasbasbasbasbag61
(g77
g63
NtRp3000
(dp3001
g66
(dp3002
sg75
g71
sg68
(lp3003
g61
(g82
g63
NtRp3004
(dp3005
g66
(dp3006
g86
g87
ssg75
g3000
sg68
(lp3007
S'wsgi'
p3008
asbag61
(g82
g63
NtRp3009
(dp3010
g66
(dp3011
g93
g94
ssg75
g3000
sg68
(lp3012
S':'
asbag61
(g82
g63
NtRp3013
(dp3014
g66
(dp3015
sg75
g3000
sg68
(lp3016
g61
(g62
g63
NtRp3017
(dp3018
g66
(dp3019
g74
I5
ssg75
g3013
sg68
(lp3020
g61
(g70
g63
NtRp3021
(dp3022
g66
(dp3023
g74
I4
ssg75
Nsg68
(lp3024
g61
(g77
g63
NtRp3025
(dp3026
g66
(dp3027
sg75
g3021
sg68
(lp3028
g61
(g82
g63
NtRp3029
(dp3030
g66
(dp3031
g86
g87
ssg75
g3025
sg68
(lp3032
S'environ'
p3033
asbag61
(g82
g63
NtRp3034
(dp3035
g66
(dp3036
g93
g94
ssg75
g3025
sg68
(lp3037
S':'
asbag61
(g82
g63
NtRp3038
(dp3039
g66
(dp3040
sg75
g3025
sg68
(lp3041
g61
(g62
g63
NtRp3042
(dp3043
g66
(dp3044
g74
I4
ssg75
g3038
sg68
(lp3045
g61
(g70
g63
NtRp3046
(dp3047
g66
(dp3048
g74
I3
ssg75
Nsg68
(lp3049
g61
(g77
g63
NtRp3050
(dp3051
g66
(dp3052
sg75
g3046
sg68
(lp3053
g61
(g82
g63
NtRp3054
(dp3055
g66
(dp3056
g86
g87
ssg75
g3050
sg68
(lp3057
S'CONTENT_LENGTH'
p3058
asbag61
(g82
g63
NtRp3059
(dp3060
g66
(dp3061
g93
g94
ssg75
g3050
sg68
(lp3062
S':'
asbag61
(g82
g63
NtRp3063
(dp3064
g66
(dp3065
sg75
g3050
sg68
(lp3066
g61
(g62
g63
NtRp3067
(dp3068
g66
(dp3069
g74
I3
ssg75
g3063
sg68
(lp3070
g968
asbasbasbag61
(g77
g63
NtRp3071
(dp3072
g66
(dp3073
sg75
g3046
sg68
(lp3074
g61
(g82
g63
NtRp3075
(dp3076
g66
(dp3077
g86
g87
ssg75
g3071
sg68
(lp3078
S'CONTENT_TYPE'
p3079
asbag61
(g82
g63
NtRp3080
(dp3081
g66
(dp3082
g93
g94
ssg75
g3071
sg68
(lp3083
S':'
asbag61
(g82
g63
NtRp3084
(dp3085
g66
(dp3086
sg75
g3071
sg68
(lp3087
g61
(g62
g63
NtRp3088
(dp3089
g66
(dp3090
g74
I3
ssg75
g3084
sg68
(lp3091
g990
asbasbasbag61
(g77
g63
NtRp3092
(dp3093
g66
(dp3094
sg75
g3046
sg68
(lp3095
g61
(g82
g63
NtRp3096
(dp3097
g66
(dp3098
g86
g87
ssg75
g3092
sg68
(lp3099
S'HTTP_ACCEPT'
p3100
asbag61
(g82
g63
NtRp3101
(dp3102
g66
(dp3103
g93
g94
ssg75
g3092
sg68
(lp3104
S':'
asbag61
(g82
g63
NtRp3105
(dp3106
g66
(dp3107
sg75
g3092
sg68
(lp3108
g61
(g62
g63
NtRp3109
(dp3110
g66
(dp3111
g74
I3
ssg75
g3105
sg68
(lp3112
g1077
asbasbasbag61
(g77
g63
NtRp3113
(dp3114
g66
(dp3115
sg75
g3046
sg68
(lp3116
g61
(g82
g63
NtRp3117
(dp3118
g66
(dp3119
g86
g87
ssg75
g3113
sg68
(lp3120
S'HTTP_ACCEPT_ENCODING'
p3121
asbag61
(g82
g63
NtRp3122
(dp3123
g66
(dp3124
g93
g94
ssg75
g3113
sg68
(lp3125
S':'
asbag61
(g82
g63
NtRp3126
(dp3127
g66
(dp3128
sg75
g3113
sg68
(lp3129
g61
(g62
g63
NtRp3130
(dp3131
g66
(dp3132
g74
I3
ssg75
g3126
sg68
(lp3133
g1099
asbasbasbag61
(g77
g63
NtRp3134
(dp3135
g66
(dp3136
sg75
g3046
sg68
(lp3137
g61
(g82
g63
NtRp3138
(dp3139
g66
(dp3140
g86
g87
ssg75
g3134
sg68
(lp3141
S'HTTP_ACCEPT_LANGUAGE'
p3142
asbag61
(g82
g63
NtRp3143
(dp3144
g66
(dp3145
g93
g94
ssg75
g3134
sg68
(lp3146
S':'
asbag61
(g82
g63
NtRp3147
(dp3148
g66
(dp3149
sg75
g3134
sg68
(lp3150
g61
(g62
g63
NtRp3151
(dp3152
g66
(dp3153
g74
I3
ssg75
g3147
sg68
(lp3154
g1121
asbasbasbag61
(g77
g63
NtRp3155
(dp3156
g66
(dp3157
sg75
g3046
sg68
(lp3158
g61
(g82
g63
NtRp3159
(dp3160
g66
(dp3161
g86
g87
ssg75
g3155
sg68
(lp3162
S'HTTP_CACHE_CONTROL'
p3163
asbag61
(g82
g63
NtRp3164
(dp3165
g66
(dp3166
g93
g94
ssg75
g3155
sg68
(lp3167
S':'
asbag61
(g82
g63
NtRp3168
(dp3169
g66
(dp3170
sg75
g3155
sg68
(lp3171
g61
(g62
g63
NtRp3172
(dp3173
g66
(dp3174
g74
I3
ssg75
g3168
sg68
(lp3175
g1143
asbasbasbag61
(g77
g63
NtRp3176
(dp3177
g66
(dp3178
sg75
g3046
sg68
(lp3179
g61
(g82
g63
NtRp3180
(dp3181
g66
(dp3182
g86
g87
ssg75
g3176
sg68
(lp3183
S'HTTP_CONNECTION'
p3184
asbag61
(g82
g63
NtRp3185
(dp3186
g66
(dp3187
g93
g94
ssg75
g3176
sg68
(lp3188
S':'
asbag61
(g82
g63
NtRp3189
(dp3190
g66
(dp3191
sg75
g3176
sg68
(lp3192
g61
(g62
g63
NtRp3193
(dp3194
g66
(dp3195
g74
I3
ssg75
g3189
sg68
(lp3196
g1165
asbasbasbag61
(g77
g63
NtRp3197
(dp3198
g66
(dp3199
sg75
g3046
sg68
(lp3200
g61
(g82
g63
NtRp3201
(dp3202
g66
(dp3203
g86
g87
ssg75
g3197
sg68
(lp3204
S'HTTP_CONTENT_LENGTH'
p3205
asbag61
(g82
g63
NtRp3206
(dp3207
g66
(dp3208
g93
g94
ssg75
g3197
sg68
(lp3209
S':'
asbag61
(g82
g63
NtRp3210
(dp3211
g66
(dp3212
sg75
g3197
sg68
(lp3213
g61
(g62
g63
NtRp3214
(dp3215
g66
(dp3216
g74
I3
ssg75
g3210
sg68
(lp3217
g968
asbasbasbag61
(g77
g63
NtRp3218
(dp3219
g66
(dp3220
sg75
g3046
sg68
(lp3221
g61
(g82
g63
NtRp3222
(dp3223
g66
(dp3224
g86
g87
ssg75
g3218
sg68
(lp3225
S'HTTP_CONTENT_TYPE'
p3226
asbag61
(g82
g63
NtRp3227
(dp3228
g66
(dp3229
g93
g94
ssg75
g3218
sg68
(lp3230
S':'
asbag61
(g82
g63
NtRp3231
(dp3232
g66
(dp3233
sg75
g3218
sg68
(lp3234
g61
(g62
g63
NtRp3235
(dp3236
g66
(dp3237
g74
I3
ssg75
g3231
sg68
(lp3238
g990
asbasbasbag61
(g77
g63
NtRp3239
(dp3240
g66
(dp3241
sg75
g3046
sg68
(lp3242
g61
(g82
g63
NtRp3243
(dp3244
g66
(dp3245
g86
g87
ssg75
g3239
sg68
(lp3246
S'HTTP_COOKIE'
p3247
asbag61
(g82
g63
NtRp3248
(dp3249
g66
(dp3250
g93
g94
ssg75
g3239
sg68
(lp3251
S':'
asbag61
(g82
g63
NtRp3252
(dp3253
g66
(dp3254
sg75
g3239
sg68
(lp3255
g61
(g62
g63
NtRp3256
(dp3257
g66
(dp3258
g74
I3
ssg75
g3252
sg68
(lp3259
g1229
asbasbasbag61
(g77
g63
NtRp3260
(dp3261
g66
(dp3262
sg75
g3046
sg68
(lp3263
g61
(g82
g63
NtRp3264
(dp3265
g66
(dp3266
g86
g87
ssg75
g3260
sg68
(lp3267
S'HTTP_HOST'
p3268
asbag61
(g82
g63
NtRp3269
(dp3270
g66
(dp3271
g93
g94
ssg75
g3260
sg68
(lp3272
S':'
asbag61
(g82
g63
NtRp3273
(dp3274
g66
(dp3275
sg75
g3260
sg68
(lp3276
g61
(g62
g63
NtRp3277
(dp3278
g66
(dp3279
g74
I3
ssg75
g3273
sg68
(lp3280
g1251
asbasbasbag61
(g77
g63
NtRp3281
(dp3282
g66
(dp3283
sg75
g3046
sg68
(lp3284
g61
(g82
g63
NtRp3285
(dp3286
g66
(dp3287
g86
g87
ssg75
g3281
sg68
(lp3288
S'HTTP_ORIGIN'
p3289
asbag61
(g82
g63
NtRp3290
(dp3291
g66
(dp3292
g93
g94
ssg75
g3281
sg68
(lp3293
S':'
asbag61
(g82
g63
NtRp3294
(dp3295
g66
(dp3296
sg75
g3281
sg68
(lp3297
g61
(g62
g63
NtRp3298
(dp3299
g66
(dp3300
g74
I3
ssg75
g3294
sg68
(lp3301
g1273
asbasbasbag61
(g77
g63
NtRp3302
(dp3303
g66
(dp3304
sg75
g3046
sg68
(lp3305
g61
(g82
g63
NtRp3306
(dp3307
g66
(dp3308
g86
g87
ssg75
g3302
sg68
(lp3309
S'HTTP_REFERER'
p3310
asbag61
(g82
g63
NtRp3311
(dp3312
g66
(dp3313
g93
g94
ssg75
g3302
sg68
(lp3314
S':'
asbag61
(g82
g63
NtRp3315
(dp3316
g66
(dp3317
sg75
g3302
sg68
(lp3318
g61
(g62
g63
NtRp3319
(dp3320
g66
(dp3321
g74
I3
ssg75
g3315
sg68
(lp3322
g1295
asbasbasbag61
(g77
g63
NtRp3323
(dp3324
g66
(dp3325
sg75
g3046
sg68
(lp3326
g61
(g82
g63
NtRp3327
(dp3328
g66
(dp3329
g86
g87
ssg75
g3323
sg68
(lp3330
S'HTTP_USER_AGENT'
p3331
asbag61
(g82
g63
NtRp3332
(dp3333
g66
(dp3334
g93
g94
ssg75
g3323
sg68
(lp3335
S':'
asbag61
(g82
g63
NtRp3336
(dp3337
g66
(dp3338
sg75
g3323
sg68
(lp3339
g61
(g62
g63
NtRp3340
(dp3341
g66
(dp3342
g74
I3
ssg75
g3336
sg68
(lp3343
g1317
asbasbasbag61
(g77
g63
NtRp3344
(dp3345
g66
(dp3346
sg75
g3046
sg68
(lp3347
g61
(g82
g63
NtRp3348
(dp3349
g66
(dp3350
g86
g87
ssg75
g3344
sg68
(lp3351
S'PATH_INFO'
p3352
asbag61
(g82
g63
NtRp3353
(dp3354
g66
(dp3355
g93
g94
ssg75
g3344
sg68
(lp3356
S':'
asbag61
(g82
g63
NtRp3357
(dp3358
g66
(dp3359
sg75
g3344
sg68
(lp3360
g61
(g62
g63
NtRp3361
(dp3362
g66
(dp3363
g74
I3
ssg75
g3357
sg68
(lp3364
g1381
asbasbasbag61
(g77
g63
NtRp3365
(dp3366
g66
(dp3367
sg75
g3046
sg68
(lp3368
g61
(g82
g63
NtRp3369
(dp3370
g66
(dp3371
g86
g87
ssg75
g3365
sg68
(lp3372
S'QUERY_STRING'
p3373
asbag61
(g82
g63
NtRp3374
(dp3375
g66
(dp3376
g93
g94
ssg75
g3365
sg68
(lp3377
S':'
asbag61
(g82
g63
NtRp3378
(dp3379
g66
(dp3380
sg75
g3365
sg68
(lp3381
g61
(g62
g63
NtRp3382
(dp3383
g66
(dp3384
g74
I3
ssg75
g3378
sg68
(lp3385
S''
asbasbasbag61
(g77
g63
NtRp3386
(dp3387
g66
(dp3388
sg75
g3046
sg68
(lp3389
g61
(g82
g63
NtRp3390
(dp3391
g66
(dp3392
g86
g87
ssg75
g3386
sg68
(lp3393
S'REMOTE_ADDR'
p3394
asbag61
(g82
g63
NtRp3395
(dp3396
g66
(dp3397
g93
g94
ssg75
g3386
sg68
(lp3398
S':'
asbag61
(g82
g63
NtRp3399
(dp3400
g66
(dp3401
sg75
g3386
sg68
(lp3402
g61
(g62
g63
NtRp3403
(dp3404
g66
(dp3405
g74
I3
ssg75
g3399
sg68
(lp3406
g220
asbasbasbag61
(g77
g63
NtRp3407
(dp3408
g66
(dp3409
sg75
g3046
sg68
(lp3410
g61
(g82
g63
NtRp3411
(dp3412
g66
(dp3413
g86
g87
ssg75
g3407
sg68
(lp3414
S'REMOTE_PORT'
p3415
asbag61
(g82
g63
NtRp3416
(dp3417
g66
(dp3418
g93
g94
ssg75
g3407
sg68
(lp3419
S':'
asbag61
(g82
g63
NtRp3420
(dp3421
g66
(dp3422
sg75
g3407
sg68
(lp3423
g61
(g62
g63
NtRp3424
(dp3425
g66
(dp3426
g74
I3
ssg75
g3420
sg68
(lp3427
g1445
asbasbasbag61
(g77
g63
NtRp3428
(dp3429
g66
(dp3430
sg75
g3046
sg68
(lp3431
g61
(g82
g63
NtRp3432
(dp3433
g66
(dp3434
g86
g87
ssg75
g3428
sg68
(lp3435
S'REQUEST_METHOD'
p3436
asbag61
(g82
g63
NtRp3437
(dp3438
g66
(dp3439
g93
g94
ssg75
g3428
sg68
(lp3440
S':'
asbag61
(g82
g63
NtRp3441
(dp3442
g66
(dp3443
sg75
g3428
sg68
(lp3444
g61
(g62
g63
NtRp3445
(dp3446
g66
(dp3447
g74
I3
ssg75
g3441
sg68
(lp3448
g1467
asbasbasbag61
(g77
g63
NtRp3449
(dp3450
g66
(dp3451
sg75
g3046
sg68
(lp3452
g61
(g82
g63
NtRp3453
(dp3454
g66
(dp3455
g86
g87
ssg75
g3449
sg68
(lp3456
S'SCRIPT_NAME'
p3457
asbag61
(g82
g63
NtRp3458
(dp3459
g66
(dp3460
g93
g94
ssg75
g3449
sg68
(lp3461
S':'
asbag61
(g82
g63
NtRp3462
(dp3463
g66
(dp3464
sg75
g3449
sg68
(lp3465
g61
(g62
g63
NtRp3466
(dp3467
g66
(dp3468
g74
I3
ssg75
g3462
sg68
(lp3469
S''
asbasbasbag61
(g77
g63
NtRp3470
(dp3471
g66
(dp3472
sg75
g3046
sg68
(lp3473
g61
(g82
g63
NtRp3474
(dp3475
g66
(dp3476
g86
g87
ssg75
g3470
sg68
(lp3477
S'SERVER_NAME'
p3478
asbag61
(g82
g63
NtRp3479
(dp3480
g66
(dp3481
g93
g94
ssg75
g3470
sg68
(lp3482
S':'
asbag61
(g82
g63
NtRp3483
(dp3484
g66
(dp3485
sg75
g3470
sg68
(lp3486
g61
(g62
g63
NtRp3487
(dp3488
g66
(dp3489
g74
I3
ssg75
g3483
sg68
(lp3490
g1510
asbasbasbag61
(g77
g63
NtRp3491
(dp3492
g66
(dp3493
sg75
g3046
sg68
(lp3494
g61
(g82
g63
NtRp3495
(dp3496
g66
(dp3497
g86
g87
ssg75
g3491
sg68
(lp3498
S'SERVER_PORT'
p3499
asbag61
(g82
g63
NtRp3500
(dp3501
g66
(dp3502
g93
g94
ssg75
g3491
sg68
(lp3503
S':'
asbag61
(g82
g63
NtRp3504
(dp3505
g66
(dp3506
sg75
g3491
sg68
(lp3507
g61
(g62
g63
NtRp3508
(dp3509
g66
(dp3510
g74
I3
ssg75
g3504
sg68
(lp3511
g1532
asbasbasbag61
(g77
g63
NtRp3512
(dp3513
g66
(dp3514
sg75
g3046
sg68
(lp3515
g61
(g82
g63
NtRp3516
(dp3517
g66
(dp3518
g86
g87
ssg75
g3512
sg68
(lp3519
S'SERVER_PROTOCOL'
p3520
asbag61
(g82
g63
NtRp3521
(dp3522
g66
(dp3523
g93
g94
ssg75
g3512
sg68
(lp3524
S':'
asbag61
(g82
g63
NtRp3525
(dp3526
g66
(dp3527
sg75
g3512
sg68
(lp3528
g61
(g62
g63
NtRp3529
(dp3530
g66
(dp3531
g74
I3
ssg75
g3525
sg68
(lp3532
g1554
asbasbasbag61
(g77
g63
NtRp3533
(dp3534
g66
(dp3535
sg75
g3046
sg68
(lp3536
g61
(g82
g63
NtRp3537
(dp3538
g66
(dp3539
g86
g87
ssg75
g3533
sg68
(lp3540
S'SERVER_SOFTWARE'
p3541
asbag61
(g82
g63
NtRp3542
(dp3543
g66
(dp3544
g93
g94
ssg75
g3533
sg68
(lp3545
S':'
asbag61
(g82
g63
NtRp3546
(dp3547
g66
(dp3548
sg75
g3533
sg68
(lp3549
g61
(g62
g63
NtRp3550
(dp3551
g66
(dp3552
g74
I3
ssg75
g3546
sg68
(lp3553
g1576
asbasbasbag61
(g77
g63
NtRp3554
(dp3555
g66
(dp3556
sg75
g3046
sg68
(lp3557
g61
(g82
g63
NtRp3558
(dp3559
g66
(dp3560
g86
g87
ssg75
g3554
sg68
(lp3561
S'wsgi.errors'
p3562
asbag61
(g82
g63
NtRp3563
(dp3564
g66
(dp3565
g93
g94
ssg75
g3554
sg68
(lp3566
S':'
asbag61
(g82
g63
NtRp3567
(dp3568
g66
(dp3569
sg75
g3554
sg68
(lp3570
g61
(g62
g63
NtRp3571
(dp3572
g66
(dp3573
g74
I3
ssg75
g3567
sg68
(lp3574
S"<open file '<stderr>', mode 'w' at 0x7f81385401e0>"
p3575
asbasbasbag61
(g77
g63
NtRp3576
(dp3577
g66
(dp3578
sg75
g3046
sg68
(lp3579
g61
(g82
g63
NtRp3580
(dp3581
g66
(dp3582
g86
g87
ssg75
g3576
sg68
(lp3583
S'wsgi.file_wrapper'
p3584
asbag61
(g82
g63
NtRp3585
(dp3586
g66
(dp3587
g93
g94
ssg75
g3576
sg68
(lp3588
S':'
asbag61
(g82
g63
NtRp3589
(dp3590
g66
(dp3591
sg75
g3576
sg68
(lp3592
g61
(g62
g63
NtRp3593
(dp3594
g66
(dp3595
g74
I3
ssg75
g3589
sg68
(lp3596
S'<class wsgiref.util.FileWrapper at 0x7f8134499bb0>'
p3597
asbasbasbag61
(g77
g63
NtRp3598
(dp3599
g66
(dp3600
sg75
g3046
sg68
(lp3601
g61
(g82
g63
NtRp3602
(dp3603
g66
(dp3604
g86
g87
ssg75
g3598
sg68
(lp3605
S'wsgi.input'
p3606
asbag61
(g82
g63
NtRp3607
(dp3608
g66
(dp3609
g93
g94
ssg75
g3598
sg68
(lp3610
S':'
asbag61
(g82
g63
NtRp3611
(dp3612
g66
(dp3613
sg75
g3598
sg68
(lp3614
g61
(g62
g63
NtRp3615
(dp3616
g66
(dp3617
g74
I3
ssg75
g3611
sg68
(lp3618
S"<open file '<fdopen>', mode 'w+b' at 0x7f810017eb70>"
p3619
asbasbasbag61
(g77
g63
NtRp3620
(dp3621
g66
(dp3622
sg75
g3046
sg68
(lp3623
g61
(g82
g63
NtRp3624
(dp3625
g66
(dp3626
g86
g87
ssg75
g3620
sg68
(lp3627
S'wsgi.multiprocess'
p3628
asbag61
(g82
g63
NtRp3629
(dp3630
g66
(dp3631
g93
g94
ssg75
g3620
sg68
(lp3632
S':'
asbag61
(g82
g63
NtRp3633
(dp3634
g66
(dp3635
sg75
g3620
sg68
(lp3636
g61
(g62
g63
NtRp3637
(dp3638
g66
(dp3639
g74
I3
ssg75
g3633
sg68
(lp3640
g104
asbasbasbag61
(g77
g63
NtRp3641
(dp3642
g66
(dp3643
sg75
g3046
sg68
(lp3644
g61
(g82
g63
NtRp3645
(dp3646
g66
(dp3647
g86
g87
ssg75
g3641
sg68
(lp3648
S'wsgi.multithread'
p3649
asbag61
(g82
g63
NtRp3650
(dp3651
g66
(dp3652
g93
g94
ssg75
g3641
sg68
(lp3653
S':'
asbag61
(g82
g63
NtRp3654
(dp3655
g66
(dp3656
sg75
g3641
sg68
(lp3657
g61
(g62
g63
NtRp3658
(dp3659
g66
(dp3660
g74
I3
ssg75
g3654
sg68
(lp3661
g1816
asbasbasbag61
(g77
g63
NtRp3662
(dp3663
g66
(dp3664
sg75
g3046
sg68
(lp3665
g61
(g82
g63
NtRp3666
(dp3667
g66
(dp3668
g86
g87
ssg75
g3662
sg68
(lp3669
S'wsgi.run_once'
p3670
asbag61
(g82
g63
NtRp3671
(dp3672
g66
(dp3673
g93
g94
ssg75
g3662
sg68
(lp3674
S':'
asbag61
(g82
g63
NtRp3675
(dp3676
g66
(dp3677
sg75
g3662
sg68
(lp3678
g61
(g62
g63
NtRp3679
(dp3680
g66
(dp3681
g74
I3
ssg75
g3675
sg68
(lp3682
g104
asbasbasbag61
(g77
g63
NtRp3683
(dp3684
g66
(dp3685
sg75
g3046
sg68
(lp3686
g61
(g82
g63
NtRp3687
(dp3688
g66
(dp3689
g86
g87
ssg75
g3683
sg68
(lp3690
S'wsgi.url_scheme'
p3691
asbag61
(g82
g63
NtRp3692
(dp3693
g66
(dp3694
g93
g94
ssg75
g3683
sg68
(lp3695
S':'
asbag61
(g82
g63
NtRp3696
(dp3697
g66
(dp3698
sg75
g3683
sg68
(lp3699
g61
(g62
g63
NtRp3700
(dp3701
g66
(dp3702
g74
I3
ssg75
g3696
sg68
(lp3703
g1859
asbasbasbag61
(g77
g63
NtRp3704
(dp3705
g66
(dp3706
sg75
g3046
sg68
(lp3707
g61
(g82
g63
NtRp3708
(dp3709
g66
(dp3710
g86
g87
ssg75
g3704
sg68
(lp3711
S'wsgi.version'
p3712
asbag61
(g82
g63
NtRp3713
(dp3714
g66
(dp3715
g93
g94
ssg75
g3704
sg68
(lp3716
S':'
asbag61
(g82
g63
NtRp3717
(dp3718
g66
(dp3719
sg75
g3704
sg68
(lp3720
g61
(g62
g63
NtRp3721
(dp3722
g66
(dp3723
g74
I3
ssg75
g3717
sg68
(lp3724
S'1'
asbasbasbasbasbasbasbasbasbasbasbasbasbsS'frames'
p3725
(lp3726
(dp3727
S'file'
p3728
S'/usr/lib/pymodules/python2.7/gluon/restricted.py'
p3729
sS'dump'
p3730
(dp3731
S'environment'
p3732
S"{'A': <class 'gluon.html.A'>, 'Auth': <class 'gluon.tools.Auth'>, 'B': <class 'gluon.html.B'>, 'BEAUTIFY': <class 'gluon.html.BEAUTIFY'>, 'BODY': <class 'gluon.html.BODY'>, 'BR': <class 'gluon.html.BR'>, 'BUTTON': <class 'gluon.html.BUTTON'>, 'CAT': <class 'gluon.html.CAT'>, 'CENTER': <class 'gluon.html.CENTER'>, 'CLEANUP': <class 'gluon.validators.CLEANUP'>, ...}"
p3733
sS'ccode'
p3734
S'<code object <module> at 0x7f80ddf8c3b0, file "/...cations/Aarogya/controllers/appadmin.py", line 7>'
p3735
ssS'lnum'
p3736
I205
sS'lines'
p3737
(dp3738
I200
S'    try:'
p3739
sI201
S'        if type(code) == types.CodeType:'
p3740
sI202
S'            ccode = code'
p3741
sI203
S'        else:'
p3742
sI204
S'            ccode = compile2(code,layer)'
p3743
sI205
S'        exec ccode in environment'
p3744
sI206
S'    except HTTP:'
p3745
sI207
S'        raise'
p3746
sI208
S'    except RestrictedError:'
p3747
sI209
S'        # do not encapsulate (obfuscate) the original RestrictedError'
p3748
ssS'call'
p3749
S"(code='# -*- coding: utf-8 -*-\\n\\n# #####################...lse)\\n\\n\\n\\n\\nresponse._vars=response._caller(insert)\\n', environment={'A': <class 'gluon.html.A'>, 'Auth': <class 'gluon.tools.Auth'>, 'B': <class 'gluon.html.B'>, 'BEAUTIFY': <class 'gluon.html.BEAUTIFY'>, 'BODY': <class 'gluon.html.BODY'>, 'BR': <class 'gluon.html.BR'>, 'BUTTON': <class 'gluon.html.BUTTON'>, 'CAT': <class 'gluon.html.CAT'>, 'CENTER': <class 'gluon.html.CENTER'>, 'CLEANUP': <class 'gluon.validators.CLEANUP'>, ...}, layer='/home/rehas/web2py/applications/Aarogya/controllers/appadmin.py')"
p3750
sS'func'
p3751
S'restricted'
p3752
sa(dp3753
g3728
S'/home/rehas/web2py/applications/Aarogya/controllers/appadmin.py'
p3754
sg3730
(dp3755
sg3736
I433
sg3737
(dp3756
I422
S''
sI423
S"    ram['keys'] = key_table(ram['keys'])"
p3757
sI424
S"    disk['keys'] = key_table(disk['keys'])"
p3758
sI425
S"    total['keys'] = key_table(total['keys'])"
p3759
sI426
S''
sI427
S'    return dict(form=form, total=total,'
p3760
sI428
S'                ram=ram, disk=disk, object_stats=hp != False)'
p3761
sI429
S''
sI430
S''
sI431
S''
ssg3749
S'()'
p3762
sg3751
S'<module>'
p3763
sa(dp3764
g3728
S'/usr/lib/pymodules/python2.7/gluon/globals.py'
p3765
sg3730
(dp3766
S'self'
p3767
S'undefined'
p3768
sS'f'
S'<function insert>'
p3769
ssg3736
I173
sg3737
(dp3770
I168
S'        self.menu = []             # used by the default view layout'
p3771
sI169
S'        self.files = []            # used by web2py_ajax.html'
p3772
sI170
S'        self.generic_patterns = [] # patterns to allow generic views'
p3773
sI171
S"        self.delimiters = ('{{','}}')"
p3774
sI172
S'        self._vars = None'
p3775
sI173
S'        self._caller = lambda f: f()'
p3776
sI174
S'        self._view_environment = None'
p3777
sI175
S'        self._custom_commit = None'
p3778
sI176
S'        self._custom_rollback = None'
p3779
sI177
S''
ssg3749
S'(f=<function insert>)'
p3780
sg3751
S'<lambda>'
p3781
sa(dp3782
g3728
S'/home/rehas/web2py/applications/Aarogya/controllers/appadmin.py'
p3783
sg3730
(dp3784
S'global request'
p3785
S"<Storage {'body': <open file '<fdopen>', mode 'w...odgroup': 'O+', '_formname': 'patient/create'}>}>"
p3786
sS'request.vars'
p3787
S"<Storage {'first_name': 'a', 'last_name': 'a', '...loodgroup': 'O+', '_formname': 'patient/create'}>"
p3788
sS'global session'
p3789
S"<Storage {'_formkey[patient/create]': '4bb3a381-...sword]': 'ec5b5a07-8024-4036-86e9-ff1db7ed6e05'}>"
p3790
sS'form'
p3791
S'<gluon.sqlhtml.SQLFORM object>'
p3792
sS'form.accepts'
p3793
S'<bound method SQLFORM.accepts of <gluon.sqlhtml.SQLFORM object>>'
p3794
ssg3736
I128
sg3737
(dp3795
I128
S'    if form.accepts(request.vars, session):'
p3796
sI129
S"        response.flash = T('new record inserted')"
p3797
sI130
S'    return dict(form=form,table=db[table])'
p3798
sI131
S''
sI132
S''
sI123
S''
sI124
S''
sI125
S'def insert():'
p3799
sI126
S'    (db, table) = get_table(request)'
p3800
sI127
S'    form = SQLFORM(db[table], ignore_rw=ignore_rw)'
p3801
ssg3749
S'()'
p3802
sg3751
S'insert'
p3803
sa(dp3804
g3728
S'/usr/lib/pymodules/python2.7/gluon/sqlhtml.py'
p3805
sg3730
(dp3806
S'self.vars.id'
p3807
S'None'
p3808
sS'fields'
p3809
S"{'UPID': '4345', 'address': 'gf', 'allergies': 'ggh', 'bloodgroup': 'O+', 'dob': '2015-04-14', 'email': 'a@b.com', 'first_name': 'a', 'last_name': 'a', 'password': 'aggh', 'phone': '87', ...}"
p3810
sS'self'
p3811
S'<gluon.sqlhtml.SQLFORM object>'
p3812
sS'self.vars'
p3813
S"<Storage {'first_name': 'a', 'last_name': 'a', '...': 'gf', 'bloodgroup': 'O+', 'email': 'a@b.com'}>"
p3814
sS'self.table.insert'
p3815
S"<bound method Table.insert of <Table {'last_name...d': <gluon.dal.Field object at 0x7f80ddfa5c50>}>>"
p3816
sS'self.table'
p3817
S"<Table {'last_name': <gluon.dal.Field object at ...id': <gluon.dal.Field object at 0x7f80ddfa5c50>}>"
p3818
ssg3736
I1274
sg3737
(dp3819
I1269
S'                if record_id:'
p3820
sI1270
S'                    self.vars.id = self.record[self.id_field_name]'
p3821
sI1271
S'                    if fields:'
p3822
sI1272
S'                        self.table._db(self.table._id == self.record[self.id_field_name]).update(**fields)'
p3823
sI1273
S'                else:'
p3824
sI1274
S'                    self.vars.id = self.table.insert(**fields)'
p3825
sI1275
S'        self.accepted = ret'
p3826
sI1276
S'        return ret'
p3827
sI1277
S''
sI1278
S'    @staticmethod'
p3828
ssg3749
S"(self=<gluon.sqlhtml.SQLFORM object>, request_vars=<Storage {'first_name': 'a', 'last_name': 'a', '...loodgroup': 'O+', '_formname': 'patient/create'}>, session=<Storage {'_formkey[patient/create]': '4bb3a381-...sword]': 'ec5b5a07-8024-4036-86e9-ff1db7ed6e05'}>, formname='patient/create', keepvalues=False, onvalidation=None, dbio=True, hideerror=False, detect_record_change=False)"
p3829
sg3751
S'accepts'
p3830
sa(dp3831
g3728
S'/usr/lib/pymodules/python2.7/gluon/dal.py'
p3832
sg3730
(dp3833
S'self._listify'
p3834
S"<bound method Table._listify of <Table {'last_na...d': <gluon.dal.Field object at 0x7f80ddfa5c50>}>>"
p3835
sS'fields'
p3836
S"{'UPID': '4345', 'address': 'gf', 'allergies': 'ggh', 'bloodgroup': 'O+', 'dob': '2015-04-14', 'email': 'a@b.com', 'first_name': 'a', 'last_name': 'a', 'password': 'aggh', 'phone': '87', ...}"
p3837
sS'self'
p3838
S"<Table {'last_name': <gluon.dal.Field object at ...id': <gluon.dal.Field object at 0x7f80ddfa5c50>}>"
p3839
sS'self._db._adapter'
p3840
S'<gluon.dal.SQLiteAdapter object>'
p3841
sS'self._db._adapter.insert'
p3842
S'<bound method SQLiteAdapter.insert of <gluon.dal.SQLiteAdapter object>>'
p3843
sS'self._db'
p3844
S"<DAL {'auth_event': <Table {'origin': <gluon.dal...': <gluon.dal.Field object at 0x7f80ddf854d0>}>}>"
p3845
ssg3736
I6829
sg3737
(dp3846
I6824
S''
sI6825
S'    def _insert(self, **fields):'
p3847
sI6826
S'        return self._db._adapter._insert(self,self._listify(fields))'
p3848
sI6827
S''
sI6828
S'    def insert(self, **fields):'
p3849
sI6829
S'        return self._db._adapter.insert(self,self._listify(fields))'
p3850
sI6830
S''
sI6831
S'    def validate_and_insert(self,**fields):'
p3851
sI6832
S'        response = Row()'
p3852
sI6833
S'        response.errors = Row()'
p3853
ssg3749
S"(self=<Table {'last_name': <gluon.dal.Field object at ...id': <gluon.dal.Field object at 0x7f80ddfa5c50>}>, **fields={'UPID': '4345', 'address': 'gf', 'allergies': 'ggh', 'bloodgroup': 'O+', 'dob': '2015-04-14', 'email': 'a@b.com', 'first_name': 'a', 'last_name': 'a', 'password': 'aggh', 'phone': '87', ...})"
p3854
sg3751
g3803
sa(dp3855
g3728
S'/usr/lib/pymodules/python2.7/gluon/dal.py'
p3856
sg3730
(dp3857
S'e'
S"IntegrityError('UNIQUE constraint failed: patient.email',)"
p3858
ssg3736
I928
sg3737
(dp3859
I928
S'            raise e'
p3860
sI929
S"        if hasattr(table,'_primarykey'):"
p3861
sI930
S'            return dict([(k[0].name, k[1]) for k in fields \\'
p3862
sI931
S'                             if k[0].name in table._primarykey])'
p3863
sI932
S'        id = self.lastrowid(table)'
p3864
sI923
S'        try:'
p3865
sI924
S'            self.execute(query)'
p3866
sI925
S'        except Exception, e:'
p3867
sI926
S'            if isinstance(e,self.integrity_error_class()):'
p3868
sI927
S'                return None'
p3869
ssg3749
S"(self=<gluon.dal.SQLiteAdapter object>, table=<Table {'last_name': <gluon.dal.Field object at ...id': <gluon.dal.Field object at 0x7f80ddfa5c50>}>, fields=[(<gluon.dal.Field object>, 'a'), (<gluon.dal.Field object>, 'a'), (<gluon.dal.Field object>, '2015-04-14'), (<gluon.dal.Field object>, 'ggh'), (<gluon.dal.Field object>, '4345'), (<gluon.dal.Field object>, 'F'), (<gluon.dal.Field object>, '87'), (<gluon.dal.Field object>, 'gf'), (<gluon.dal.Field object>, 'aggh'), (<gluon.dal.Field object>, 'a@b.com'), (<gluon.dal.Field object>, 'O+')])"
p3870
sg3751
g3803
sasS'pyver'
p3871
S'Python 2.7.6: /usr/bin/python'
p3872
sS'session'
p3873
g61
(g62
g63
NtRp3874
(dp3875
g66
(dp3876
sg68
(lp3877
g61
(g70
g63
NtRp3878
(dp3879
g66
(dp3880
g74
I5
ssg75
Nsg68
(lp3881
g61
(g77
g63
NtRp3882
(dp3883
g66
(dp3884
sg75
g3878
sg68
(lp3885
g61
(g82
g63
NtRp3886
(dp3887
g66
(dp3888
g86
g87
ssg75
g3882
sg68
(lp3889
S'last_query'
p3890
asbag61
(g82
g63
NtRp3891
(dp3892
g66
(dp3893
g93
g94
ssg75
g3882
sg68
(lp3894
S':'
asbag61
(g82
g63
NtRp3895
(dp3896
g66
(dp3897
sg75
g3882
sg68
(lp3898
g61
(g62
g63
NtRp3899
(dp3900
g66
(dp3901
g74
I5
ssg75
g3895
sg68
(lp3902
S'db.patient.id>0'
p3903
asbasbasbasbasbsS'etype'
p3904
S"<class 'sqlite3.IntegrityError'>"
p3905
sS'date'
p3906
S'Thu Apr  2 20:10:58 2015'
p3907
sS'response'
p3908
g61
(g62
g63
NtRp3909
(dp3910
g66
(dp3911
sg68
(lp3912
g61
(g70
g63
NtRp3913
(dp3914
g66
(dp3915
g74
I5
ssg75
Nsg68
(lp3916
g61
(g77
g63
NtRp3917
(dp3918
g66
(dp3919
sg75
g3913
sg68
(lp3920
g61
(g82
g63
NtRp3921
(dp3922
g66
(dp3923
g86
g87
ssg75
g3917
sg68
(lp3924
g185
asbag61
(g82
g63
NtRp3925
(dp3926
g66
(dp3927
g93
g94
ssg75
g3917
sg68
(lp3928
S':'
asbag61
(g82
g63
NtRp3929
(dp3930
g66
(dp3931
sg75
g3917
sg68
(lp3932
g61
(g62
g63
NtRp3933
(dp3934
g66
(dp3935
g74
I5
ssg75
g3929
sg68
(lp3936
S'<cStringIO.StringO object at 0x7f80ddfa6ce0>'
p3937
asbasbasbag61
(g77
g63
NtRp3938
(dp3939
g66
(dp3940
sg75
g3913
sg68
(lp3941
g61
(g82
g63
NtRp3942
(dp3943
g66
(dp3944
g86
g87
ssg75
g3938
sg68
(lp3945
g251
asbag61
(g82
g63
NtRp3946
(dp3947
g66
(dp3948
g93
g94
ssg75
g3938
sg68
(lp3949
S':'
asbag61
(g82
g63
NtRp3950
(dp3951
g66
(dp3952
sg75
g3938
sg68
(lp3953
g61
(g62
g63
NtRp3954
(dp3955
g66
(dp3956
g74
I5
ssg75
g3950
sg68
(lp3957
g61
(g70
g63
NtRp3958
(dp3959
g66
(dp3960
g74
I4
ssg75
Nsg68
(lp3961
g61
(g77
g63
NtRp3962
(dp3963
g66
(dp3964
sg75
g3958
sg68
(lp3965
g61
(g82
g63
NtRp3966
(dp3967
g66
(dp3968
g86
g87
ssg75
g3962
sg68
(lp3969
S'session_id_aarogya'
p3970
asbag61
(g82
g63
NtRp3971
(dp3972
g66
(dp3973
g93
g94
ssg75
g3962
sg68
(lp3974
S':'
asbag61
(g82
g63
NtRp3975
(dp3976
g66
(dp3977
sg75
g3962
sg68
(lp3978
g61
(g62
g63
NtRp3979
(dp3980
g66
(dp3981
g74
I4
ssg75
g3975
sg68
(lp3982
g61
(g70
g63
NtRp3983
(dp3984
g66
(dp3985
g74
I3
ssg75
Nsg68
(lp3986
g61
(g77
g63
NtRp3987
(dp3988
g66
(dp3989
sg75
g3983
sg68
(lp3990
g61
(g82
g63
NtRp3991
(dp3992
g66
(dp3993
g86
g87
ssg75
g3987
sg68
(lp3994
g301
asbag61
(g82
g63
NtRp3995
(dp3996
g66
(dp3997
g93
g94
ssg75
g3987
sg68
(lp3998
S':'
asbag61
(g82
g63
NtRp3999
(dp4000
g66
(dp4001
sg75
g3987
sg68
(lp4002
g61
(g62
g63
NtRp4003
(dp4004
g66
(dp4005
g74
I3
ssg75
g3999
sg68
(lp4006
S''
asbasbasbag61
(g77
g63
NtRp4007
(dp4008
g66
(dp4009
sg75
g3983
sg68
(lp4010
g61
(g82
g63
NtRp4011
(dp4012
g66
(dp4013
g86
g87
ssg75
g4007
sg68
(lp4014
g322
asbag61
(g82
g63
NtRp4015
(dp4016
g66
(dp4017
g93
g94
ssg75
g4007
sg68
(lp4018
S':'
asbag61
(g82
g63
NtRp4019
(dp4020
g66
(dp4021
sg75
g4007
sg68
(lp4022
g61
(g62
g63
NtRp4023
(dp4024
g66
(dp4025
g74
I3
ssg75
g4019
sg68
(lp4026
S''
asbasbasbag61
(g77
g63
NtRp4027
(dp4028
g66
(dp4029
sg75
g3983
sg68
(lp4030
g61
(g82
g63
NtRp4031
(dp4032
g66
(dp4033
g86
g87
ssg75
g4027
sg68
(lp4034
g343
asbag61
(g82
g63
NtRp4035
(dp4036
g66
(dp4037
g93
g94
ssg75
g4027
sg68
(lp4038
S':'
asbag61
(g82
g63
NtRp4039
(dp4040
g66
(dp4041
sg75
g4027
sg68
(lp4042
g61
(g62
g63
NtRp4043
(dp4044
g66
(dp4045
g74
I3
ssg75
g4039
sg68
(lp4046
S''
asbasbasbag61
(g77
g63
NtRp4047
(dp4048
g66
(dp4049
sg75
g3983
sg68
(lp4050
g61
(g82
g63
NtRp4051
(dp4052
g66
(dp4053
g86
g87
ssg75
g4047
sg68
(lp4054
g364
asbag61
(g82
g63
NtRp4055
(dp4056
g66
(dp4057
g93
g94
ssg75
g4047
sg68
(lp4058
S':'
asbag61
(g82
g63
NtRp4059
(dp4060
g66
(dp4061
sg75
g4047
sg68
(lp4062
g61
(g62
g63
NtRp4063
(dp4064
g66
(dp4065
g74
I3
ssg75
g4059
sg68
(lp4066
S''
asbasbasbag61
(g77
g63
NtRp4067
(dp4068
g66
(dp4069
sg75
g3983
sg68
(lp4070
g61
(g82
g63
NtRp4071
(dp4072
g66
(dp4073
g86
g87
ssg75
g4067
sg68
(lp4074
g385
asbag61
(g82
g63
NtRp4075
(dp4076
g66
(dp4077
g93
g94
ssg75
g4067
sg68
(lp4078
S':'
asbag61
(g82
g63
NtRp4079
(dp4080
g66
(dp4081
sg75
g4067
sg68
(lp4082
g61
(g62
g63
NtRp4083
(dp4084
g66
(dp4085
g74
I3
ssg75
g4079
sg68
(lp4086
S''
asbasbasbag61
(g77
g63
NtRp4087
(dp4088
g66
(dp4089
sg75
g3983
sg68
(lp4090
g61
(g82
g63
NtRp4091
(dp4092
g66
(dp4093
g86
g87
ssg75
g4087
sg68
(lp4094
g406
asbag61
(g82
g63
NtRp4095
(dp4096
g66
(dp4097
g93
g94
ssg75
g4087
sg68
(lp4098
S':'
asbag61
(g82
g63
NtRp4099
(dp4100
g66
(dp4101
sg75
g4087
sg68
(lp4102
g61
(g62
g63
NtRp4103
(dp4104
g66
(dp4105
g74
I3
ssg75
g4099
sg68
(lp4106
S'/'
asbasbasbag61
(g77
g63
NtRp4107
(dp4108
g66
(dp4109
sg75
g3983
sg68
(lp4110
g61
(g82
g63
NtRp4111
(dp4112
g66
(dp4113
g86
g87
ssg75
g4107
sg68
(lp4114
g427
asbag61
(g82
g63
NtRp4115
(dp4116
g66
(dp4117
g93
g94
ssg75
g4107
sg68
(lp4118
S':'
asbag61
(g82
g63
NtRp4119
(dp4120
g66
(dp4121
sg75
g4107
sg68
(lp4122
g61
(g62
g63
NtRp4123
(dp4124
g66
(dp4125
g74
I3
ssg75
g4119
sg68
(lp4126
S''
asbasbasbag61
(g77
g63
NtRp4127
(dp4128
g66
(dp4129
sg75
g3983
sg68
(lp4130
g61
(g82
g63
NtRp4131
(dp4132
g66
(dp4133
g86
g87
ssg75
g4127
sg68
(lp4134
g448
asbag61
(g82
g63
NtRp4135
(dp4136
g66
(dp4137
g93
g94
ssg75
g4127
sg68
(lp4138
S':'
asbag61
(g82
g63
NtRp4139
(dp4140
g66
(dp4141
sg75
g4127
sg68
(lp4142
g61
(g62
g63
NtRp4143
(dp4144
g66
(dp4145
g74
I3
ssg75
g4139
sg68
(lp4146
S''
asbasbasbasbasbasbasbasbasbasbasbag61
(g77
g63
NtRp4147
(dp4148
g66
(dp4149
sg75
g3913
sg68
(lp4150
g61
(g82
g63
NtRp4151
(dp4152
g66
(dp4153
g86
g87
ssg75
g4147
sg68
(lp4154
S'delimiters'
p4155
asbag61
(g82
g63
NtRp4156
(dp4157
g66
(dp4158
g93
g94
ssg75
g4147
sg68
(lp4159
S':'
asbag61
(g82
g63
NtRp4160
(dp4161
g66
(dp4162
sg75
g4147
sg68
(lp4163
g61
(g62
g63
NtRp4164
(dp4165
g66
(dp4166
g74
I5
ssg75
g4160
sg68
(lp4167
g61
(g70
g63
NtRp4168
(dp4169
g66
(dp4170
g74
I4
ssg75
Nsg68
(lp4171
g61
(g77
g63
NtRp4172
(dp4173
g66
(dp4174
sg75
g4168
sg68
(lp4175
g61
(g82
g63
NtRp4176
(dp4177
g66
(dp4178
sg75
g4172
sg68
(lp4179
g61
(g62
g63
NtRp4180
(dp4181
g66
(dp4182
g74
I4
ssg75
g4176
sg68
(lp4183
S'{{'
p4184
asbasbasbag61
(g77
g63
NtRp4185
(dp4186
g66
(dp4187
sg75
g4168
sg68
(lp4188
g61
(g82
g63
NtRp4189
(dp4190
g66
(dp4191
sg75
g4185
sg68
(lp4192
g61
(g62
g63
NtRp4193
(dp4194
g66
(dp4195
g74
I4
ssg75
g4189
sg68
(lp4196
S'}}'
p4197
asbasbasbasbasbasbasbag61
(g77
g63
NtRp4198
(dp4199
g66
(dp4200
sg75
g3913
sg68
(lp4201
g61
(g82
g63
NtRp4202
(dp4203
g66
(dp4204
g86
g87
ssg75
g4198
sg68
(lp4205
S'files'
p4206
asbag61
(g82
g63
NtRp4207
(dp4208
g66
(dp4209
g93
g94
ssg75
g4198
sg68
(lp4210
S':'
asbag61
(g82
g63
NtRp4211
(dp4212
g66
(dp4213
sg75
g4198
sg68
(lp4214
g61
(g62
g63
NtRp4215
(dp4216
g66
(dp4217
g74
I5
ssg75
g4211
sg68
(lp4218
g61
(g70
g63
NtRp4219
(dp4220
g66
(dp4221
g74
I4
ssg75
Nsg68
(lp4222
sbasbasbasbag61
(g77
g63
NtRp4223
(dp4224
g66
(dp4225
sg75
g3913
sg68
(lp4226
g61
(g82
g63
NtRp4227
(dp4228
g66
(dp4229
g86
g87
ssg75
g4223
sg68
(lp4230
S'flash'
p4231
asbag61
(g82
g63
NtRp4232
(dp4233
g66
(dp4234
g93
g94
ssg75
g4223
sg68
(lp4235
S':'
asbag61
(g82
g63
NtRp4236
(dp4237
g66
(dp4238
sg75
g4223
sg68
(lp4239
g61
(g62
g63
NtRp4240
(dp4241
g66
(dp4242
g74
I5
ssg75
g4236
sg68
(lp4243
S''
asbasbasbag61
(g77
g63
NtRp4244
(dp4245
g66
(dp4246
sg75
g3913
sg68
(lp4247
g61
(g82
g63
NtRp4248
(dp4249
g66
(dp4250
g86
g87
ssg75
g4244
sg68
(lp4251
S'generic_patterns'
p4252
asbag61
(g82
g63
NtRp4253
(dp4254
g66
(dp4255
g93
g94
ssg75
g4244
sg68
(lp4256
S':'
asbag61
(g82
g63
NtRp4257
(dp4258
g66
(dp4259
sg75
g4244
sg68
(lp4260
g61
(g62
g63
NtRp4261
(dp4262
g66
(dp4263
g74
I5
ssg75
g4257
sg68
(lp4264
g61
(g70
g63
NtRp4265
(dp4266
g66
(dp4267
g74
I4
ssg75
Nsg68
(lp4268
g61
(g77
g63
NtRp4269
(dp4270
g66
(dp4271
sg75
g4265
sg68
(lp4272
g61
(g82
g63
NtRp4273
(dp4274
g66
(dp4275
sg75
g4269
sg68
(lp4276
g61
(g62
g63
NtRp4277
(dp4278
g66
(dp4279
g74
I4
ssg75
g4273
sg68
(lp4280
S'*'
asbasbasbasbasbasbasbag61
(g77
g63
NtRp4281
(dp4282
g66
(dp4283
sg75
g3913
sg68
(lp4284
g61
(g82
g63
NtRp4285
(dp4286
g66
(dp4287
g86
g87
ssg75
g4281
sg68
(lp4288
S'headers'
p4289
asbag61
(g82
g63
NtRp4290
(dp4291
g66
(dp4292
g93
g94
ssg75
g4281
sg68
(lp4293
S':'
asbag61
(g82
g63
NtRp4294
(dp4295
g66
(dp4296
sg75
g4281
sg68
(lp4297
g61
(g62
g63
NtRp4298
(dp4299
g66
(dp4300
g74
I5
ssg75
g4294
sg68
(lp4301
g61
(g70
g63
NtRp4302
(dp4303
g66
(dp4304
g74
I4
ssg75
Nsg68
(lp4305
g61
(g77
g63
NtRp4306
(dp4307
g66
(dp4308
sg75
g4302
sg68
(lp4309
g61
(g82
g63
NtRp4310
(dp4311
g66
(dp4312
g86
g87
ssg75
g4306
sg68
(lp4313
S'Cache-Control'
p4314
asbag61
(g82
g63
NtRp4315
(dp4316
g66
(dp4317
g93
g94
ssg75
g4306
sg68
(lp4318
S':'
asbag61
(g82
g63
NtRp4319
(dp4320
g66
(dp4321
sg75
g4306
sg68
(lp4322
g61
(g62
g63
NtRp4323
(dp4324
g66
(dp4325
g74
I4
ssg75
g4319
sg68
(lp4326
S'no-store, no-cache, must-revalidate, post-check=0, pre-check=0'
p4327
asbasbasbag61
(g77
g63
NtRp4328
(dp4329
g66
(dp4330
sg75
g4302
sg68
(lp4331
g61
(g82
g63
NtRp4332
(dp4333
g66
(dp4334
g86
g87
ssg75
g4328
sg68
(lp4335
S'Content-Type'
p4336
asbag61
(g82
g63
NtRp4337
(dp4338
g66
(dp4339
g93
g94
ssg75
g4328
sg68
(lp4340
S':'
asbag61
(g82
g63
NtRp4341
(dp4342
g66
(dp4343
sg75
g4328
sg68
(lp4344
g61
(g62
g63
NtRp4345
(dp4346
g66
(dp4347
g74
I4
ssg75
g4341
sg68
(lp4348
S'text/html; charset=utf-8'
p4349
asbasbasbag61
(g77
g63
NtRp4350
(dp4351
g66
(dp4352
sg75
g4302
sg68
(lp4353
g61
(g82
g63
NtRp4354
(dp4355
g66
(dp4356
g86
g87
ssg75
g4350
sg68
(lp4357
S'Expires'
p4358
asbag61
(g82
g63
NtRp4359
(dp4360
g66
(dp4361
g93
g94
ssg75
g4350
sg68
(lp4362
S':'
asbag61
(g82
g63
NtRp4363
(dp4364
g66
(dp4365
sg75
g4350
sg68
(lp4366
g61
(g62
g63
NtRp4367
(dp4368
g66
(dp4369
g74
I4
ssg75
g4363
sg68
(lp4370
S'Thu, 02 Apr 2015 14:40:58 GMT'
p4371
asbasbasbag61
(g77
g63
NtRp4372
(dp4373
g66
(dp4374
sg75
g4302
sg68
(lp4375
g61
(g82
g63
NtRp4376
(dp4377
g66
(dp4378
g86
g87
ssg75
g4372
sg68
(lp4379
S'Pragma'
p4380
asbag61
(g82
g63
NtRp4381
(dp4382
g66
(dp4383
g93
g94
ssg75
g4372
sg68
(lp4384
S':'
asbag61
(g82
g63
NtRp4385
(dp4386
g66
(dp4387
sg75
g4372
sg68
(lp4388
g61
(g62
g63
NtRp4389
(dp4390
g66
(dp4391
g74
I4
ssg75
g4385
sg68
(lp4392
S'no-cache'
p4393
asbasbasbag61
(g77
g63
NtRp4394
(dp4395
g66
(dp4396
sg75
g4302
sg68
(lp4397
g61
(g82
g63
NtRp4398
(dp4399
g66
(dp4400
g86
g87
ssg75
g4394
sg68
(lp4401
S'X-Powered-By'
p4402
asbag61
(g82
g63
NtRp4403
(dp4404
g66
(dp4405
g93
g94
ssg75
g4394
sg68
(lp4406
S':'
asbag61
(g82
g63
NtRp4407
(dp4408
g66
(dp4409
sg75
g4394
sg68
(lp4410
g61
(g62
g63
NtRp4411
(dp4412
g66
(dp4413
g74
I4
ssg75
g4407
sg68
(lp4414
S'web2py'
p4415
asbasbasbasbasbasbasbag61
(g77
g63
NtRp4416
(dp4417
g66
(dp4418
sg75
g3913
sg68
(lp4419
g61
(g82
g63
NtRp4420
(dp4421
g66
(dp4422
g86
g87
ssg75
g4416
sg68
(lp4423
S'menu'
p4424
asbag61
(g82
g63
NtRp4425
(dp4426
g66
(dp4427
g93
g94
ssg75
g4416
sg68
(lp4428
S':'
asbag61
(g82
g63
NtRp4429
(dp4430
g66
(dp4431
sg75
g4416
sg68
(lp4432
g61
(g62
g63
NtRp4433
(dp4434
g66
(dp4435
g74
I5
ssg75
g4429
sg68
(lp4436
g61
(g70
g63
NtRp4437
(dp4438
g66
(dp4439
g74
I4
ssg75
Nsg68
(lp4440
g61
(g77
g63
NtRp4441
(dp4442
g66
(dp4443
sg75
g4437
sg68
(lp4444
g61
(g82
g63
NtRp4445
(dp4446
g66
(dp4447
sg75
g4441
sg68
(lp4448
g61
(g62
g63
NtRp4449
(dp4450
g66
(dp4451
g74
I4
ssg75
g4445
sg68
(lp4452
g61
(g70
g63
NtRp4453
(dp4454
g66
(dp4455
g74
I3
ssg75
Nsg68
(lp4456
g61
(g77
g63
NtRp4457
(dp4458
g66
(dp4459
sg75
g4453
sg68
(lp4460
g61
(g82
g63
NtRp4461
(dp4462
g66
(dp4463
sg75
g4457
sg68
(lp4464
g61
(g62
g63
NtRp4465
(dp4466
g66
(dp4467
g74
I3
ssg75
g4461
sg68
(lp4468
cgluon.languages
lazyT_unpickle
p4469
(S't\x06\x00\x00\x00design'
tRp4470
asbasbasbag61
(g77
g63
NtRp4471
(dp4472
g66
(dp4473
sg75
g4453
sg68
(lp4474
g61
(g82
g63
NtRp4475
(dp4476
g66
(dp4477
sg75
g4471
sg68
(lp4478
g61
(g62
g63
NtRp4479
(dp4480
g66
(dp4481
g74
I3
ssg75
g4475
sg68
(lp4482
g104
asbasbasbag61
(g77
g63
NtRp4483
(dp4484
g66
(dp4485
sg75
g4453
sg68
(lp4486
g61
(g82
g63
NtRp4487
(dp4488
g66
(dp4489
sg75
g4483
sg68
(lp4490
g61
(g62
g63
NtRp4491
(dp4492
g66
(dp4493
g74
I3
ssg75
g4487
sg68
(lp4494
S'/admin/default/design/Aarogya'
p4495
asbasbasbasbasbasbasbag61
(g77
g63
NtRp4496
(dp4497
g66
(dp4498
sg75
g4437
sg68
(lp4499
g61
(g82
g63
NtRp4500
(dp4501
g66
(dp4502
sg75
g4496
sg68
(lp4503
g61
(g62
g63
NtRp4504
(dp4505
g66
(dp4506
g74
I4
ssg75
g4500
sg68
(lp4507
g61
(g70
g63
NtRp4508
(dp4509
g66
(dp4510
g74
I3
ssg75
Nsg68
(lp4511
g61
(g77
g63
NtRp4512
(dp4513
g66
(dp4514
sg75
g4508
sg68
(lp4515
g61
(g82
g63
NtRp4516
(dp4517
g66
(dp4518
sg75
g4512
sg68
(lp4519
g61
(g62
g63
NtRp4520
(dp4521
g66
(dp4522
g74
I3
ssg75
g4516
sg68
(lp4523
g4469
(S't\x02\x00\x00\x00db'
tRp4524
asbasbasbag61
(g77
g63
NtRp4525
(dp4526
g66
(dp4527
sg75
g4508
sg68
(lp4528
g61
(g82
g63
NtRp4529
(dp4530
g66
(dp4531
sg75
g4525
sg68
(lp4532
g61
(g62
g63
NtRp4533
(dp4534
g66
(dp4535
g74
I3
ssg75
g4529
sg68
(lp4536
g104
asbasbasbag61
(g77
g63
NtRp4537
(dp4538
g66
(dp4539
sg75
g4508
sg68
(lp4540
g61
(g82
g63
NtRp4541
(dp4542
g66
(dp4543
sg75
g4537
sg68
(lp4544
g61
(g62
g63
NtRp4545
(dp4546
g66
(dp4547
g74
I3
ssg75
g4541
sg68
(lp4548
S'/Aarogya/appadmin/index'
p4549
asbasbasbasbasbasbasbag61
(g77
g63
NtRp4550
(dp4551
g66
(dp4552
sg75
g4437
sg68
(lp4553
g61
(g82
g63
NtRp4554
(dp4555
g66
(dp4556
sg75
g4550
sg68
(lp4557
g61
(g62
g63
NtRp4558
(dp4559
g66
(dp4560
g74
I4
ssg75
g4554
sg68
(lp4561
g61
(g70
g63
NtRp4562
(dp4563
g66
(dp4564
g74
I3
ssg75
Nsg68
(lp4565
g61
(g77
g63
NtRp4566
(dp4567
g66
(dp4568
sg75
g4562
sg68
(lp4569
g61
(g82
g63
NtRp4570
(dp4571
g66
(dp4572
sg75
g4566
sg68
(lp4573
g61
(g62
g63
NtRp4574
(dp4575
g66
(dp4576
g74
I3
ssg75
g4570
sg68
(lp4577
g4469
(S't\x05\x00\x00\x00state'
tRp4578
asbasbasbag61
(g77
g63
NtRp4579
(dp4580
g66
(dp4581
sg75
g4562
sg68
(lp4582
g61
(g82
g63
NtRp4583
(dp4584
g66
(dp4585
sg75
g4579
sg68
(lp4586
g61
(g62
g63
NtRp4587
(dp4588
g66
(dp4589
g74
I3
ssg75
g4583
sg68
(lp4590
g104
asbasbasbag61
(g77
g63
NtRp4591
(dp4592
g66
(dp4593
sg75
g4562
sg68
(lp4594
g61
(g82
g63
NtRp4595
(dp4596
g66
(dp4597
sg75
g4591
sg68
(lp4598
g61
(g62
g63
NtRp4599
(dp4600
g66
(dp4601
g74
I3
ssg75
g4595
sg68
(lp4602
S'/Aarogya/appadmin/state'
p4603
asbasbasbasbasbasbasbag61
(g77
g63
NtRp4604
(dp4605
g66
(dp4606
sg75
g4437
sg68
(lp4607
g61
(g82
g63
NtRp4608
(dp4609
g66
(dp4610
sg75
g4604
sg68
(lp4611
g61
(g62
g63
NtRp4612
(dp4613
g66
(dp4614
g74
I4
ssg75
g4608
sg68
(lp4615
g61
(g70
g63
NtRp4616
(dp4617
g66
(dp4618
g74
I3
ssg75
Nsg68
(lp4619
g61
(g77
g63
NtRp4620
(dp4621
g66
(dp4622
sg75
g4616
sg68
(lp4623
g61
(g82
g63
NtRp4624
(dp4625
g66
(dp4626
sg75
g4620
sg68
(lp4627
g61
(g62
g63
NtRp4628
(dp4629
g66
(dp4630
g74
I3
ssg75
g4624
sg68
(lp4631
g4469
(S't\x05\x00\x00\x00cache'
tRp4632
asbasbasbag61
(g77
g63
NtRp4633
(dp4634
g66
(dp4635
sg75
g4616
sg68
(lp4636
g61
(g82
g63
NtRp4637
(dp4638
g66
(dp4639
sg75
g4633
sg68
(lp4640
g61
(g62
g63
NtRp4641
(dp4642
g66
(dp4643
g74
I3
ssg75
g4637
sg68
(lp4644
g104
asbasbasbag61
(g77
g63
NtRp4645
(dp4646
g66
(dp4647
sg75
g4616
sg68
(lp4648
g61
(g82
g63
NtRp4649
(dp4650
g66
(dp4651
sg75
g4645
sg68
(lp4652
g61
(g62
g63
NtRp4653
(dp4654
g66
(dp4655
g74
I3
ssg75
g4649
sg68
(lp4656
S'/Aarogya/appadmin/ccache'
p4657
asbasbasbasbasbasbasbasbasbasbasbag61
(g77
g63
NtRp4658
(dp4659
g66
(dp4660
sg75
g3913
sg68
(lp4661
g61
(g82
g63
NtRp4662
(dp4663
g66
(dp4664
g86
g87
ssg75
g4658
sg68
(lp4665
S'meta'
p4666
asbag61
(g82
g63
NtRp4667
(dp4668
g66
(dp4669
g93
g94
ssg75
g4658
sg68
(lp4670
S':'
asbag61
(g82
g63
NtRp4671
(dp4672
g66
(dp4673
sg75
g4658
sg68
(lp4674
g61
(g62
g63
NtRp4675
(dp4676
g66
(dp4677
g74
I5
ssg75
g4671
sg68
(lp4678
g61
(g70
g63
NtRp4679
(dp4680
g66
(dp4681
g74
I4
ssg75
Nsg68
(lp4682
g61
(g77
g63
NtRp4683
(dp4684
g66
(dp4685
sg75
g4679
sg68
(lp4686
g61
(g82
g63
NtRp4687
(dp4688
g66
(dp4689
g86
g87
ssg75
g4683
sg68
(lp4690
S'author'
p4691
asbag61
(g82
g63
NtRp4692
(dp4693
g66
(dp4694
g93
g94
ssg75
g4683
sg68
(lp4695
S':'
asbag61
(g82
g63
NtRp4696
(dp4697
g66
(dp4698
sg75
g4683
sg68
(lp4699
g61
(g62
g63
NtRp4700
(dp4701
g66
(dp4702
g74
I4
ssg75
g4696
sg68
(lp4703
S'Your Name <you@example.com>'
p4704
asbasbasbag61
(g77
g63
NtRp4705
(dp4706
g66
(dp4707
sg75
g4679
sg68
(lp4708
g61
(g82
g63
NtRp4709
(dp4710
g66
(dp4711
g86
g87
ssg75
g4705
sg68
(lp4712
S'copyright'
p4713
asbag61
(g82
g63
NtRp4714
(dp4715
g66
(dp4716
g93
g94
ssg75
g4705
sg68
(lp4717
S':'
asbag61
(g82
g63
NtRp4718
(dp4719
g66
(dp4720
sg75
g4705
sg68
(lp4721
g61
(g62
g63
NtRp4722
(dp4723
g66
(dp4724
g74
I4
ssg75
g4718
sg68
(lp4725
S'Copyright 2011'
p4726
asbasbasbag61
(g77
g63
NtRp4727
(dp4728
g66
(dp4729
sg75
g4679
sg68
(lp4730
g61
(g82
g63
NtRp4731
(dp4732
g66
(dp4733
g86
g87
ssg75
g4727
sg68
(lp4734
S'description'
p4735
asbag61
(g82
g63
NtRp4736
(dp4737
g66
(dp4738
g93
g94
ssg75
g4727
sg68
(lp4739
S':'
asbag61
(g82
g63
NtRp4740
(dp4741
g66
(dp4742
sg75
g4727
sg68
(lp4743
g61
(g62
g63
NtRp4744
(dp4745
g66
(dp4746
g74
I4
ssg75
g4740
sg68
(lp4747
S'a cool new app'
p4748
asbasbasbag61
(g77
g63
NtRp4749
(dp4750
g66
(dp4751
sg75
g4679
sg68
(lp4752
g61
(g82
g63
NtRp4753
(dp4754
g66
(dp4755
g86
g87
ssg75
g4749
sg68
(lp4756
S'generator'
p4757
asbag61
(g82
g63
NtRp4758
(dp4759
g66
(dp4760
g93
g94
ssg75
g4749
sg68
(lp4761
S':'
asbag61
(g82
g63
NtRp4762
(dp4763
g66
(dp4764
sg75
g4749
sg68
(lp4765
g61
(g62
g63
NtRp4766
(dp4767
g66
(dp4768
g74
I4
ssg75
g4762
sg68
(lp4769
S'Web2py Web Framework'
p4770
asbasbasbag61
(g77
g63
NtRp4771
(dp4772
g66
(dp4773
sg75
g4679
sg68
(lp4774
g61
(g82
g63
NtRp4775
(dp4776
g66
(dp4777
g86
g87
ssg75
g4771
sg68
(lp4778
S'keywords'
p4779
asbag61
(g82
g63
NtRp4780
(dp4781
g66
(dp4782
g93
g94
ssg75
g4771
sg68
(lp4783
S':'
asbag61
(g82
g63
NtRp4784
(dp4785
g66
(dp4786
sg75
g4771
sg68
(lp4787
g61
(g62
g63
NtRp4788
(dp4789
g66
(dp4790
g74
I4
ssg75
g4784
sg68
(lp4791
S'web2py, python, framework'
p4792
asbasbasbasbasbasbasbag61
(g77
g63
NtRp4793
(dp4794
g66
(dp4795
sg75
g3913
sg68
(lp4796
g61
(g82
g63
NtRp4797
(dp4798
g66
(dp4799
g86
g87
ssg75
g4793
sg68
(lp4800
S'postprocessing'
p4801
asbag61
(g82
g63
NtRp4802
(dp4803
g66
(dp4804
g93
g94
ssg75
g4793
sg68
(lp4805
S':'
asbag61
(g82
g63
NtRp4806
(dp4807
g66
(dp4808
sg75
g4793
sg68
(lp4809
g61
(g62
g63
NtRp4810
(dp4811
g66
(dp4812
g74
I5
ssg75
g4806
sg68
(lp4813
g61
(g70
g63
NtRp4814
(dp4815
g66
(dp4816
g74
I4
ssg75
Nsg68
(lp4817
sbasbasbasbag61
(g77
g63
NtRp4818
(dp4819
g66
(dp4820
sg75
g3913
sg68
(lp4821
g61
(g82
g63
NtRp4822
(dp4823
g66
(dp4824
g86
g87
ssg75
g4818
sg68
(lp4825
S'session_file'
p4826
asbag61
(g82
g63
NtRp4827
(dp4828
g66
(dp4829
g93
g94
ssg75
g4818
sg68
(lp4830
S':'
asbag61
(g82
g63
NtRp4831
(dp4832
g66
(dp4833
sg75
g4818
sg68
(lp4834
g61
(g62
g63
NtRp4835
(dp4836
g66
(dp4837
g74
I5
ssg75
g4831
sg68
(lp4838
S"<open file '/home/rehas/web2py/applications/Aarogya/sessions/127.0.0.1-e2ba3789-4d9c-48e7-a17b-bf51d819a3ae', mode 'rb+' at 0x7f81001beae0>"
p4839
asbasbasbag61
(g77
g63
NtRp4840
(dp4841
g66
(dp4842
sg75
g3913
sg68
(lp4843
g61
(g82
g63
NtRp4844
(dp4845
g66
(dp4846
g86
g87
ssg75
g4840
sg68
(lp4847
S'session_filename'
p4848
asbag61
(g82
g63
NtRp4849
(dp4850
g66
(dp4851
g93
g94
ssg75
g4840
sg68
(lp4852
S':'
asbag61
(g82
g63
NtRp4853
(dp4854
g66
(dp4855
sg75
g4840
sg68
(lp4856
g61
(g62
g63
NtRp4857
(dp4858
g66
(dp4859
g74
I5
ssg75
g4853
sg68
(lp4860
S'/home/rehas/web2py/applications/Aarogya/sessions/127.0.0.1-e2ba3789-4d9c-48e7-a17b-bf51d819a3ae'
p4861
asbasbasbag61
(g77
g63
NtRp4862
(dp4863
g66
(dp4864
sg75
g3913
sg68
(lp4865
g61
(g82
g63
NtRp4866
(dp4867
g66
(dp4868
g86
g87
ssg75
g4862
sg68
(lp4869
S'session_id'
p4870
asbag61
(g82
g63
NtRp4871
(dp4872
g66
(dp4873
g93
g94
ssg75
g4862
sg68
(lp4874
S':'
asbag61
(g82
g63
NtRp4875
(dp4876
g66
(dp4877
sg75
g4862
sg68
(lp4878
g61
(g62
g63
NtRp4879
(dp4880
g66
(dp4881
g74
I5
ssg75
g4875
sg68
(lp4882
S'127.0.0.1-e2ba3789-4d9c-48e7-a17b-bf51d819a3ae'
p4883
asbasbasbag61
(g77
g63
NtRp4884
(dp4885
g66
(dp4886
sg75
g3913
sg68
(lp4887
g61
(g82
g63
NtRp4888
(dp4889
g66
(dp4890
g86
g87
ssg75
g4884
sg68
(lp4891
S'session_id_name'
p4892
asbag61
(g82
g63
NtRp4893
(dp4894
g66
(dp4895
g93
g94
ssg75
g4884
sg68
(lp4896
S':'
asbag61
(g82
g63
NtRp4897
(dp4898
g66
(dp4899
sg75
g4884
sg68
(lp4900
g61
(g62
g63
NtRp4901
(dp4902
g66
(dp4903
g74
I5
ssg75
g4897
sg68
(lp4904
g3970
asbasbasbag61
(g77
g63
NtRp4905
(dp4906
g66
(dp4907
sg75
g3913
sg68
(lp4908
g61
(g82
g63
NtRp4909
(dp4910
g66
(dp4911
g86
g87
ssg75
g4905
sg68
(lp4912
S'session_locked'
p4913
asbag61
(g82
g63
NtRp4914
(dp4915
g66
(dp4916
g93
g94
ssg75
g4905
sg68
(lp4917
S':'
asbag61
(g82
g63
NtRp4918
(dp4919
g66
(dp4920
sg75
g4905
sg68
(lp4921
g61
(g62
g63
NtRp4922
(dp4923
g66
(dp4924
g74
I5
ssg75
g4918
sg68
(lp4925
g1816
asbasbasbag61
(g77
g63
NtRp4926
(dp4927
g66
(dp4928
sg75
g3913
sg68
(lp4929
g61
(g82
g63
NtRp4930
(dp4931
g66
(dp4932
g86
g87
ssg75
g4926
sg68
(lp4933
S'session_new'
p4934
asbag61
(g82
g63
NtRp4935
(dp4936
g66
(dp4937
g93
g94
ssg75
g4926
sg68
(lp4938
S':'
asbag61
(g82
g63
NtRp4939
(dp4940
g66
(dp4941
sg75
g4926
sg68
(lp4942
g61
(g62
g63
NtRp4943
(dp4944
g66
(dp4945
g74
I5
ssg75
g4939
sg68
(lp4946
g104
asbasbasbag61
(g77
g63
NtRp4947
(dp4948
g66
(dp4949
sg75
g3913
sg68
(lp4950
g61
(g82
g63
NtRp4951
(dp4952
g66
(dp4953
g86
g87
ssg75
g4947
sg68
(lp4954
S'status'
p4955
asbag61
(g82
g63
NtRp4956
(dp4957
g66
(dp4958
g93
g94
ssg75
g4947
sg68
(lp4959
S':'
asbag61
(g82
g63
NtRp4960
(dp4961
g66
(dp4962
sg75
g4947
sg68
(lp4963
g61
(g62
g63
NtRp4964
(dp4965
g66
(dp4966
g74
I5
ssg75
g4960
sg68
(lp4967
S'200'
p4968
asbasbasbag61
(g77
g63
NtRp4969
(dp4970
g66
(dp4971
sg75
g3913
sg68
(lp4972
g61
(g82
g63
NtRp4973
(dp4974
g66
(dp4975
g86
g87
ssg75
g4969
sg68
(lp4976
S'subtitle'
p4977
asbag61
(g82
g63
NtRp4978
(dp4979
g66
(dp4980
g93
g94
ssg75
g4969
sg68
(lp4981
S':'
asbag61
(g82
g63
NtRp4982
(dp4983
g66
(dp4984
sg75
g4969
sg68
(lp4985
g61
(g62
g63
NtRp4986
(dp4987
g66
(dp4988
g74
I5
ssg75
g4982
sg68
(lp4989
g4469
(S's\r\x00\x00\x00customize me!'
tRp4990
asbasbasbag61
(g77
g63
NtRp4991
(dp4992
g66
(dp4993
sg75
g3913
sg68
(lp4994
g61
(g82
g63
NtRp4995
(dp4996
g66
(dp4997
g86
g87
ssg75
g4991
sg68
(lp4998
S'title'
p4999
asbag61
(g82
g63
NtRp5000
(dp5001
g66
(dp5002
g93
g94
ssg75
g4991
sg68
(lp5003
S':'
asbag61
(g82
g63
NtRp5004
(dp5005
g66
(dp5006
sg75
g4991
sg68
(lp5007
g61
(g62
g63
NtRp5008
(dp5009
g66
(dp5010
g74
I5
ssg75
g5004
sg68
(lp5011
S'Aarogya'
p5012
asbasbasbag61
(g77
g63
NtRp5013
(dp5014
g66
(dp5015
sg75
g3913
sg68
(lp5016
g61
(g82
g63
NtRp5017
(dp5018
g66
(dp5019
g86
g87
ssg75
g5013
sg68
(lp5020
g2741
asbag61
(g82
g63
NtRp5021
(dp5022
g66
(dp5023
g93
g94
ssg75
g5013
sg68
(lp5024
S':'
asbag61
(g82
g63
NtRp5025
(dp5026
g66
(dp5027
sg75
g5013
sg68
(lp5028
g61
(g62
g63
NtRp5029
(dp5030
g66
(dp5031
g74
I5
ssg75
g5025
sg68
(lp5032
g2754
asbasbasbag61
(g77
g63
NtRp5033
(dp5034
g66
(dp5035
sg75
g3913
sg68
(lp5036
g61
(g82
g63
NtRp5037
(dp5038
g66
(dp5039
g86
g87
ssg75
g5033
sg68
(lp5040
S'view'
p5041
asbag61
(g82
g63
NtRp5042
(dp5043
g66
(dp5044
g93
g94
ssg75
g5033
sg68
(lp5045
S':'
asbag61
(g82
g63
NtRp5046
(dp5047
g66
(dp5048
sg75
g5033
sg68
(lp5049
g61
(g62
g63
NtRp5050
(dp5051
g66
(dp5052
g74
I5
ssg75
g5046
sg68
(lp5053
S'appadmin.html'
p5054
asbasbasbasbasbsS'locals'
p5055
(dp5056
S'query'
p5057
S'"INSERT INTO patient(first_name,last_name,dob,all...ggh\',\'4345\',\'F\',\'87\',\'gf\',\'aggh\',\'a@b.com\',\'O+\');"'
p5058
sS'self'
p5059
S'<gluon.dal.SQLiteAdapter object>'
p5060
sS'e'
S"IntegrityError('UNIQUE constraint failed: patient.email',)"
p5061
sS'fields'
p5062
S"[(<gluon.dal.Field object>, 'a'), (<gluon.dal.Field object>, 'a'), (<gluon.dal.Field object>, '2015-04-14'), (<gluon.dal.Field object>, 'ggh'), (<gluon.dal.Field object>, '4345'), (<gluon.dal.Field object>, 'F'), (<gluon.dal.Field object>, '87'), (<gluon.dal.Field object>, 'gf'), (<gluon.dal.Field object>, 'aggh'), (<gluon.dal.Field object>, 'a@b.com'), (<gluon.dal.Field object>, 'O+')]"
p5063
sS'table'
p5064
S"<Table {'last_name': <gluon.dal.Field object at ...id': <gluon.dal.Field object at 0x7f80ddfa5c50>}>"
p5065
sssS'traceback'
p5066
S'Traceback (most recent call last):\n  File "/usr/lib/pymodules/python2.7/gluon/restricted.py", line 205, in restricted\n    exec ccode in environment\n  File "/home/rehas/web2py/applications/Aarogya/controllers/appadmin.py", line 433, in <module>\n  File "/usr/lib/pymodules/python2.7/gluon/globals.py", line 173, in <lambda>\n    self._caller = lambda f: f()\n  File "/home/rehas/web2py/applications/Aarogya/controllers/appadmin.py", line 128, in insert\n    if form.accepts(request.vars, session):\n  File "/usr/lib/pymodules/python2.7/gluon/sqlhtml.py", line 1274, in accepts\n    self.vars.id = self.table.insert(**fields)\n  File "/usr/lib/pymodules/python2.7/gluon/dal.py", line 6829, in insert\n    return self._db._adapter.insert(self,self._listify(fields))\n  File "/usr/lib/pymodules/python2.7/gluon/dal.py", line 928, in insert\n    raise e\nIntegrityError: UNIQUE constraint failed: patient.email\n'
p5067
s.